	.section	__TEXT,__text,regular,pure_instructions
	.build_version macos, 11, 0
	.globl	_rust_oom
	.p2align	2
_rust_oom:
LBB0_1:
	b	LBB0_1

	.globl	_rust_begin_unwind
	.p2align	2
_rust_begin_unwind:
LBB1_1:
	b	LBB1_1

	.globl	_rust_eh_personality
	.p2align	2
_rust_eh_personality:
	ret

	.globl	_memchr
	.p2align	2
_memchr:
	.cfi_startproc
	stp	x20, x19, [sp, #-32]!
	.cfi_def_cfa_offset 32
	stp	x29, x30, [sp, #16]
	add	x29, sp, #16
	.cfi_def_cfa w29, 16
	.cfi_offset w30, -8
	.cfi_offset w29, -16
	.cfi_offset w19, -24
	.cfi_offset w20, -32
	cbz	x2, LBB3_3
	mov	x19, x0
	mov	x0, x1
	mov	x1, x19
	bl	__ZN6memchr6memchr8fallback6memchr17h911f38b67dd3facbE
	cbz	x0, LBB3_3
	add	x0, x19, x1
	ldp	x29, x30, [sp, #16]
	ldp	x20, x19, [sp], #32
	ret
LBB3_3:
	mov	x0, #0
	ldp	x29, x30, [sp, #16]
	ldp	x20, x19, [sp], #32
	ret
	.cfi_endproc

	.globl	_memrchr
	.p2align	2
_memrchr:
	.cfi_startproc
	stp	x20, x19, [sp, #-32]!
	.cfi_def_cfa_offset 32
	stp	x29, x30, [sp, #16]
	add	x29, sp, #16
	.cfi_def_cfa w29, 16
	.cfi_offset w30, -8
	.cfi_offset w29, -16
	.cfi_offset w19, -24
	.cfi_offset w20, -32
	cbz	x2, LBB4_3
	mov	x19, x0
	mov	x0, x1
	mov	x1, x19
	bl	__ZN6memchr6memchr8fallback7memrchr17h973174757ba6665cE
	cbz	x0, LBB4_3
	add	x0, x19, x1
	ldp	x29, x30, [sp, #16]
	ldp	x20, x19, [sp], #32
	ret
LBB4_3:
	mov	x0, #0
	ldp	x29, x30, [sp, #16]
	ldp	x20, x19, [sp], #32
	ret
	.cfi_endproc

	.globl	_memcmp
	.p2align	2
_memcmp:
	cmp	x2, #8
	b.lo	LBB5_4
	orr	w8, w1, w0
	and	x8, x8, #0x7
	cbz	x8, LBB5_4
LBB5_2:
	ldr	x8, [x0]
	ldr	x9, [x1]
	cmp	x8, x9
	b.ne	LBB5_5
	add	x0, x0, #8
	add	x1, x1, #8
	sub	x2, x2, #8
	cmp	x2, #7
	b.hi	LBB5_2
LBB5_4:
	cbz	x2, LBB5_7
LBB5_5:
	ldrb	w8, [x0]
	ldrb	w9, [x1]
	subs	w8, w8, w9
	b.ne	LBB5_8
	add	x0, x0, #1
	add	x1, x1, #1
	subs	x2, x2, #1
	b.ne	LBB5_5
LBB5_7:
	mov	w8, #0
LBB5_8:
	mov	x0, x8
	ret

	.globl	_memset
	.p2align	2
_memset:
	cmp	x2, #15
	b.ls	LBB6_8
	neg	w8, w0
	ands	x8, x8, #0x7
	add	x9, x0, x8
	b.eq	LBB6_4
	mov	x10, x8
	mov	x11, x0
LBB6_3:
	strb	w1, [x11], #1
	subs	x10, x10, #1
	b.ne	LBB6_3
LBB6_4:
	sub	x10, x2, x8
	and	x11, x10, #0xfffffffffffffff8
	add	x8, x9, x11
	cmp	x11, #1
	b.lt	LBB6_7
	and	w11, w1, #0xff
	bfi	x11, x11, #8, #8
	bfi	x11, x11, #16, #16
	bfi	x11, x11, #32, #32
LBB6_6:
	str	x11, [x9], #8
	cmp	x9, x8
	b.lo	LBB6_6
LBB6_7:
	and	x2, x10, #0x7
	cbnz	x2, LBB6_9
	b	LBB6_10
LBB6_8:
	mov	x8, x0
	cbz	x2, LBB6_10
LBB6_9:
	strb	w1, [x8], #1
	subs	x2, x2, #1
	b.ne	LBB6_9
LBB6_10:
	ret

	.globl	_memcpy
	.p2align	2
_memcpy:
	.cfi_startproc
	cmp	x2, #15
	b.ls	LBB7_8
	neg	w8, w0
	ands	x8, x8, #0x7
	b.eq	LBB7_4
	mov	x9, x8
	mov	x10, x1
	mov	x11, x0
LBB7_3:
	ldrb	w12, [x10], #1
	strb	w12, [x11], #1
	subs	x9, x9, #1
	b.ne	LBB7_3
LBB7_4:
	add	x10, x1, x8
	sub	x9, x2, x8
	and	x11, x9, #0xfffffffffffffff8
	add	x12, x0, x8
	add	x8, x12, x11
	ands	x13, x10, #0x7
	b.eq	LBB7_9
	and	x16, x10, #0xfffffffffffffff8
	ldr	x14, [x16]
	cmp	x11, #1
	b.lt	LBB7_12
	lsl	x13, x13, #3
	neg	w15, w13
	and	x15, x15, #0x38
	add	x16, x16, #8
LBB7_7:
	lsr	x14, x14, x13
	ldr	x17, [x16], #8
	lsl	x1, x17, x15
	orr	x14, x1, x14
	str	x14, [x12], #8
	mov	x14, x17
	cmp	x12, x8
	b.lo	LBB7_7
	b	LBB7_12
LBB7_8:
	mov	x8, x0
	cbnz	x2, LBB7_13
	b	LBB7_14
LBB7_9:
	cmp	x11, #1
	b.lt	LBB7_12
	mov	x13, x10
LBB7_11:
	ldr	x14, [x13], #8
	str	x14, [x12], #8
	cmp	x12, x8
	b.lo	LBB7_11
LBB7_12:
	add	x1, x10, x11
	and	x2, x9, #0x7
	cbz	x2, LBB7_14
LBB7_13:
	ldrb	w9, [x1], #1
	strb	w9, [x8], #1
	subs	x2, x2, #1
	b.ne	LBB7_13
LBB7_14:
	ret
	.cfi_endproc

	.globl	_memccpy
	.p2align	2
_memccpy:
	add	x8, x0, x3
LBB8_1:
	cmp	x0, x8
	b.hs	LBB8_4
	ldrb	w9, [x1], #1
	strb	w9, [x0], #1
	cmp	w9, w2, uxtb
	b.ne	LBB8_1
	ret
LBB8_4:
	mov	x0, #0
	ret

	.globl	_memccpy2
	.p2align	2
_memccpy2:
	.cfi_startproc
	stp	x22, x21, [sp, #-48]!
	.cfi_def_cfa_offset 48
	stp	x20, x19, [sp, #16]
	stp	x29, x30, [sp, #32]
	add	x29, sp, #32
	.cfi_def_cfa w29, 16
	.cfi_offset w30, -8
	.cfi_offset w29, -16
	.cfi_offset w19, -24
	.cfi_offset w20, -32
	.cfi_offset w21, -40
	.cfi_offset w22, -48
	cbz	x3, LBB9_31
	mov	x21, x3
	mov	x20, x1
	mov	x19, x0
	mov	x0, x2
	mov	x2, x3
	bl	__ZN6memchr6memchr8fallback6memchr17h911f38b67dd3facbE
	cbz	x0, LBB9_10
	add	x9, x1, #1
	cmp	x9, #15
	b.ls	LBB9_18
	neg	w8, w19
	ands	x8, x8, #0x7
	b.eq	LBB9_6
	mov	x10, x8
	mov	x11, x20
	mov	x12, x19
LBB9_5:
	ldrb	w13, [x11], #1
	strb	w13, [x12], #1
	subs	x10, x10, #1
	b.ne	LBB9_5
LBB9_6:
	add	x10, x20, x8
	sub	x9, x9, x8
	and	x11, x9, #0xfffffffffffffff8
	add	x12, x19, x8
	add	x8, x12, x11
	ands	x13, x10, #0x7
	b.eq	LBB9_19
	and	x16, x10, #0xfffffffffffffff8
	ldr	x14, [x16]
	cmp	x11, #1
	b.lt	LBB9_22
	lsl	x13, x13, #3
	neg	w15, w13
	and	x15, x15, #0x38
	add	x16, x16, #8
LBB9_9:
	lsr	x14, x14, x13
	ldr	x17, [x16], #8
	lsl	x0, x17, x15
	orr	x14, x0, x14
	str	x14, [x12], #8
	mov	x14, x17
	cmp	x12, x8
	b.lo	LBB9_9
	b	LBB9_22
LBB9_10:
	cmp	x21, #15
	b.ls	LBB9_30
	neg	w8, w19
	ands	x11, x8, #0x7
	b.eq	LBB9_14
	mov	x8, x11
	mov	x9, x20
	mov	x10, x19
LBB9_13:
	ldrb	w12, [x9], #1
	strb	w12, [x10], #1
	subs	x8, x8, #1
	b.ne	LBB9_13
LBB9_14:
	add	x8, x20, x11
	sub	x10, x21, x11
	and	x9, x10, #0xfffffffffffffff8
	add	x11, x19, x11
	add	x19, x11, x9
	ands	x12, x8, #0x7
	b.eq	LBB9_25
	and	x15, x8, #0xfffffffffffffff8
	ldr	x13, [x15]
	cmp	x9, #1
	b.lt	LBB9_28
	lsl	x12, x12, #3
	neg	w14, w12
	and	x14, x14, #0x38
	add	x15, x15, #8
LBB9_17:
	lsr	x13, x13, x12
	ldr	x16, [x15], #8
	lsl	x17, x16, x14
	orr	x13, x17, x13
	str	x13, [x11], #8
	mov	x13, x16
	cmp	x11, x19
	b.lo	LBB9_17
	b	LBB9_28
LBB9_18:
	mov	x8, x19
	cbnz	x9, LBB9_23
	b	LBB9_24
LBB9_19:
	cmp	x11, #1
	b.lt	LBB9_22
	mov	x13, x10
LBB9_21:
	ldr	x14, [x13], #8
	str	x14, [x12], #8
	cmp	x12, x8
	b.lo	LBB9_21
LBB9_22:
	add	x20, x10, x11
	and	x9, x9, #0x7
	cbz	x9, LBB9_24
LBB9_23:
	ldrb	w10, [x20], #1
	strb	w10, [x8], #1
	subs	x9, x9, #1
	b.ne	LBB9_23
LBB9_24:
	add	x8, x19, x1
	add	x0, x8, #1
	ldp	x29, x30, [sp, #32]
	ldp	x20, x19, [sp, #16]
	ldp	x22, x21, [sp], #48
	ret
LBB9_25:
	cmp	x9, #1
	b.lt	LBB9_28
	mov	x12, x8
LBB9_27:
	ldr	x13, [x12], #8
	str	x13, [x11], #8
	cmp	x11, x19
	b.lo	LBB9_27
LBB9_28:
	ands	x21, x10, #0x7
	b.eq	LBB9_31
	add	x20, x8, x9
LBB9_30:
	ldrb	w8, [x20], #1
	strb	w8, [x19], #1
	subs	x21, x21, #1
	b.ne	LBB9_30
LBB9_31:
	mov	x0, #0
	ldp	x29, x30, [sp, #32]
	ldp	x20, x19, [sp, #16]
	ldp	x22, x21, [sp], #48
	ret
	.cfi_endproc

	.globl	_memmove
	.p2align	2
_memmove:
	.cfi_startproc
	sub	x8, x1, x0
	cmp	x8, x2
	b.hs	LBB10_9
	add	x8, x0, x2
	add	x10, x1, x2
	cmp	x2, #15
	b.ls	LBB10_17
	and	x9, x8, #0xfffffffffffffff8
	and	x11, x8, #0x7
	neg	x12, x11
	cbz	x11, LBB10_5
	add	x13, x2, x1
	sub	x13, x13, #1
LBB10_4:
	ldrb	w14, [x13], #-1
	strb	w14, [x8, #-1]!
	cmp	x9, x8
	b.lo	LBB10_4
LBB10_5:
	add	x10, x10, x12
	sub	x12, x2, x11
	and	x8, x12, #0xfffffffffffffff8
	neg	x11, x8
	sub	x8, x9, x8
	and	x13, x10, #0x7
	cbz	x13, LBB10_19
	and	x16, x10, #0xfffffffffffffff8
	ldr	x14, [x16]
	tbz	x11, #63, LBB10_22
	lsl	x13, x13, #3
	neg	w15, w13
	and	x15, x15, #0x38
	sub	x16, x16, #8
LBB10_8:
	lsl	x14, x14, x15
	ldr	x17, [x16], #-8
	lsr	x1, x17, x13
	orr	x14, x1, x14
	str	x14, [x9, #-8]!
	mov	x14, x17
	cmp	x8, x9
	b.lo	LBB10_8
	b	LBB10_22
LBB10_9:
	cmp	x2, #15
	b.ls	LBB10_18
	neg	w8, w0
	ands	x8, x8, #0x7
	b.eq	LBB10_13
	mov	x9, x8
	mov	x10, x1
	mov	x11, x0
LBB10_12:
	ldrb	w12, [x10], #1
	strb	w12, [x11], #1
	subs	x9, x9, #1
	b.ne	LBB10_12
LBB10_13:
	add	x10, x1, x8
	sub	x9, x2, x8
	and	x11, x9, #0xfffffffffffffff8
	add	x12, x0, x8
	add	x8, x12, x11
	ands	x13, x10, #0x7
	b.eq	LBB10_26
	and	x16, x10, #0xfffffffffffffff8
	ldr	x14, [x16]
	cmp	x11, #1
	b.lt	LBB10_29
	lsl	x13, x13, #3
	neg	w15, w13
	and	x15, x15, #0x38
	add	x16, x16, #8
LBB10_16:
	lsr	x14, x14, x13
	ldr	x17, [x16], #8
	lsl	x1, x17, x15
	orr	x14, x1, x14
	str	x14, [x12], #8
	mov	x14, x17
	cmp	x12, x8
	b.lo	LBB10_16
	b	LBB10_29
LBB10_17:
	mov	x9, x0
	b	LBB10_24
LBB10_18:
	mov	x8, x0
	cbnz	x2, LBB10_30
	b	LBB10_31
LBB10_19:
	tbz	x11, #63, LBB10_22
	add	x13, x12, x1
	sub	x13, x13, #8
LBB10_21:
	ldr	x14, [x13], #-8
	str	x14, [x9, #-8]!
	cmp	x8, x9
	b.lo	LBB10_21
LBB10_22:
	and	x9, x12, #0x7
	cbz	x9, LBB10_31
	add	x10, x10, x11
	sub	x9, x8, x9
LBB10_24:
	sub	x10, x10, #1
LBB10_25:
	ldrb	w11, [x10], #-1
	strb	w11, [x8, #-1]!
	cmp	x9, x8
	b.lo	LBB10_25
	b	LBB10_31
LBB10_26:
	cmp	x11, #1
	b.lt	LBB10_29
	mov	x13, x10
LBB10_28:
	ldr	x14, [x13], #8
	str	x14, [x12], #8
	cmp	x12, x8
	b.lo	LBB10_28
LBB10_29:
	add	x1, x10, x11
	and	x2, x9, #0x7
	cbz	x2, LBB10_31
LBB10_30:
	ldrb	w9, [x1], #1
	strb	w9, [x8], #1
	subs	x2, x2, #1
	b.ne	LBB10_30
LBB10_31:
	ret
	.cfi_endproc

	.globl	_memmem
	.p2align	2
_memmem:
	.cfi_startproc
	sub	sp, sp, #128
	.cfi_def_cfa_offset 128
	stp	x22, x21, [sp, #80]
	stp	x20, x19, [sp, #96]
	stp	x29, x30, [sp, #112]
	add	x29, sp, #112
	.cfi_def_cfa w29, 16
	.cfi_offset w30, -8
	.cfi_offset w29, -16
	.cfi_offset w19, -24
	.cfi_offset w20, -32
	.cfi_offset w21, -40
	.cfi_offset w22, -48
	mov	x21, x3
	mov	x22, x2
	mov	x20, x1
	mov	x19, x0
	cmp	x1, #64
	b.hs	LBB11_2
	mov	x0, x19
	mov	x1, x20
	mov	x2, x22
	mov	x3, x21
	bl	__ZN6memchr6memmem9rabinkarp4find17hb8308d8f6c3e866fE
	b	LBB11_3
LBB11_2:
	bl	__ZN6memchr6memmem13FinderBuilder3new17h35105699d08ee389E
	add	x8, sp, #8
	mov	x1, x22
	mov	x2, x21
	bl	__ZN6memchr6memmem8Searcher3new17hb1f276ecc2aad8acE
	add	x0, sp, #8
	mov	x1, x19
	mov	x2, x20
	bl	__ZN6memchr6memmem6Finder4find17h3bef4616148b7a58E
LBB11_3:
	add	x8, x19, x1
	cmp	x0, #0
	csel	x0, xzr, x8, eq
	ldp	x29, x30, [sp, #112]
	ldp	x20, x19, [sp, #96]
	ldp	x22, x21, [sp, #80]
	add	sp, sp, #128
	ret
	.cfi_endproc

	.globl	_memrmem
	.p2align	2
_memrmem:
	.cfi_startproc
	sub	sp, sp, #128
	.cfi_def_cfa_offset 128
	stp	x24, x23, [sp, #64]
	stp	x22, x21, [sp, #80]
	stp	x20, x19, [sp, #96]
	stp	x29, x30, [sp, #112]
	add	x29, sp, #112
	.cfi_def_cfa w29, 16
	.cfi_offset w30, -8
	.cfi_offset w29, -16
	.cfi_offset w19, -24
	.cfi_offset w20, -32
	.cfi_offset w21, -40
	.cfi_offset w22, -48
	.cfi_offset w23, -56
	.cfi_offset w24, -64
	mov	x21, x3
	mov	x22, x2
	mov	x20, x1
	mov	x19, x0
	cmp	x1, #64
	b.hs	LBB12_3
	mov	x0, x19
	mov	x1, x20
	mov	x2, x22
	mov	x3, x21
	bl	__ZN6memchr6memmem9rabinkarp5rfind17h97e81bed6ef76eb2E
LBB12_2:
	mov	x8, x0
	b	LBB12_68
LBB12_3:
	bl	__ZN6memchr6memmem13FinderBuilder3new17h35105699d08ee389E
	add	x8, sp, #8
	mov	x0, x22
	mov	x1, x21
	bl	__ZN6memchr6memmem11SearcherRev3new17h4552e010b3cd2b4fE
	add	x0, sp, #8
	bl	__ZN6memchr6memmem11SearcherRev6needle17hbb98eec6d27af25dE
	cmp	x1, x20
	b.ls	LBB12_5
	mov	x8, #0
	b	LBB12_68
LBB12_5:
	ldr	x8, [sp, #40]
	sub	x8, x8, #2
	mov	w9, #2
	cmp	x8, #2
	csel	x8, x8, x9, lo
	cbz	x8, LBB12_8
	cmp	x8, #1
	b.ne	LBB12_9
	ldrb	w0, [sp, #24]
	mov	x1, x19
	mov	x2, x20
	bl	__ZN6memchr6memchr8fallback7memrchr17h973174757ba6665cE
	b	LBB12_2
LBB12_8:
	mov	w8, #1
	mov	x1, x20
	b	LBB12_68
LBB12_9:
	mov	x22, x0
	mov	x21, x1
	mov	x0, x19
	mov	x1, x20
	mov	x2, x22
	mov	x3, x21
	bl	__ZN6memchr6memmem9rabinkarp7is_fast17h417f2c4a45b4e1adE
	tbz	w0, #0, LBB12_11
	add	x8, sp, #8
	add	x0, x8, #48
	mov	x1, x19
	mov	x2, x20
	mov	x3, x22
	mov	x4, x21
	bl	__ZN6memchr6memmem9rabinkarp10rfind_with17hd255431ad592a5b8E
	b	LBB12_2
LBB12_11:
	ldp	x8, x10, [sp, #40]
	ldp	x9, x11, [sp, #24]
	add	x12, x11, #1
	cbz	x8, LBB12_32
	mov	x1, x20
	cbz	x21, LBB12_90
	sub	x0, x11, #1
	cmp	x11, x21
	b.hs	LBB12_54
	sub	x13, x19, x21
	mov	x14, x20
	b	LBB12_19
LBB12_15:
	mov	x17, #0
LBB12_16:
	sub	x8, x12, x17
LBB12_17:
	sub	x16, x14, x8
LBB12_18:
	mov	x8, #0
	mov	x14, x16
	cmp	x16, x21
	b.lo	LBB12_68
LBB12_19:
	sub	x1, x14, x21
	cmp	x1, x20
	b.hs	LBB12_90
	ldrb	w15, [x19, x1]
	lsr	x8, x9, x15
	mov	x16, x1
	tbz	w8, #0, LBB12_18
	cmp	x0, x21
	b.hs	LBB12_26
	add	x16, x13, x14
	mov	x2, x12
LBB12_23:
	subs	x17, x2, #1
	b.eq	LBB12_27
	add	x8, x1, x2
	sub	x8, x8, #2
	cmp	x8, x20
	b.hs	LBB12_69
	add	x8, x22, x2
	ldurb	w8, [x8, #-2]
	add	x2, x16, x2
	ldurb	w3, [x2, #-2]
	mov	x2, x17
	cmp	w8, w3
	b.eq	LBB12_23
	b	LBB12_16
LBB12_26:
	cbnz	x11, LBB12_76
LBB12_27:
	ldrb	w8, [x22]
	mov	x16, x11
	cmp	w8, w15
	b.ne	LBB12_15
LBB12_28:
	add	x8, x16, x1
	cmp	x8, x20
	b.hs	LBB12_69
	ldrb	w15, [x22, x16]
	ldrb	w8, [x19, x8]
	cmp	w15, w8
	b.ne	LBB12_31
	add	x16, x16, #1
	cmp	x16, x21
	b.ne	LBB12_28
	b	LBB12_67
LBB12_31:
	mov	x8, x10
	cmp	x16, x21
	b.ne	LBB12_17
	b	LBB12_67
LBB12_32:
	cmp	x21, x11
	csel	x0, x21, x11, hi
	sub	x13, x19, x21
	neg	x14, x11
	add	x15, x22, x11
	sub	x16, x11, x21
	sub	x17, x0, x11
	mov	x2, x20
	mov	x3, x21
	b	LBB12_37
LBB12_33:
	mov	x6, #0
LBB12_34:
	sub	x8, x12, x6
	mov	x5, x21
LBB12_35:
	sub	x6, x2, x8
LBB12_36:
	mov	x8, #0
	mov	x2, x6
	mov	x3, x5
	cmp	x6, x21
	b.lo	LBB12_68
LBB12_37:
	sub	x1, x2, x21
	cmp	x1, x20
	b.hs	LBB12_90
	ldrb	w4, [x19, x1]
	lsr	x8, x9, x4
	mov	x5, x21
	mov	x6, x1
	tbz	w8, #0, LBB12_36
	cmp	x11, x3
	csel	x5, x11, x3, lo
	sub	x8, x5, #1
	cmp	x8, x21
	b.hs	LBB12_44
	add	x7, x5, #1
	add	x5, x13, x2
LBB12_41:
	subs	x6, x7, #1
	b.eq	LBB12_45
	add	x8, x1, x7
	sub	x8, x8, #2
	cmp	x8, x20
	b.hs	LBB12_69
	add	x8, x22, x7
	ldurb	w8, [x8, #-2]
	add	x7, x5, x7
	ldurb	w23, [x7, #-2]
	mov	x7, x6
	cmp	w8, w23
	b.eq	LBB12_41
	b	LBB12_34
LBB12_44:
	cbnz	x5, LBB12_91
LBB12_45:
	cbz	x21, LBB12_70
	ldrb	w8, [x22]
	cmp	w8, w4
	b.ne	LBB12_33
	cmp	x11, x3
	b.hs	LBB12_67
	add	x3, x14, x3
	add	x8, x16, x2
	mov	x4, x17
	mov	x5, x15
LBB12_49:
	cbz	x4, LBB12_76
	cmp	x8, x20
	b.hs	LBB12_69
	ldrb	w6, [x5]
	ldrb	w7, [x19, x8]
	cmp	w6, w7
	b.ne	LBB12_53
	add	x5, x5, #1
	add	x8, x8, #1
	sub	x4, x4, #1
	sub	x3, x3, #1
	cbnz	x3, LBB12_49
	b	LBB12_67
LBB12_53:
	mov	x5, x10
	mov	x8, x10
	b	LBB12_35
LBB12_54:
	cmp	x0, x21
	b.hs	LBB12_71
	sub	x13, x19, x21
	mov	x14, x20
	b	LBB12_59
LBB12_56:
	sub	x8, x12, x16
LBB12_57:
	sub	x16, x14, x8
LBB12_58:
	mov	x8, #0
	mov	x14, x16
	cmp	x16, x21
	b.lo	LBB12_68
LBB12_59:
	sub	x1, x14, x21
	cmp	x1, x20
	b.hs	LBB12_90
	ldrb	w15, [x19, x1]
	lsr	x8, x9, x15
	mov	x16, x1
	tbz	w8, #0, LBB12_58
	add	x17, x13, x14
	mov	x0, x12
LBB12_62:
	subs	x16, x0, #1
	b.eq	LBB12_65
	add	x8, x1, x0
	sub	x8, x8, #2
	cmp	x8, x20
	b.hs	LBB12_69
	add	x8, x22, x0
	ldurb	w8, [x8, #-2]
	add	x0, x17, x0
	ldurb	w2, [x0, #-2]
	mov	x0, x16
	cmp	w8, w2
	b.eq	LBB12_62
	b	LBB12_56
LBB12_65:
	ldrb	w8, [x22]
	cmp	w8, w15
	b.ne	LBB12_56
	mov	x8, x10
	cmp	x11, x21
	b.ne	LBB12_57
LBB12_67:
	mov	w8, #1
LBB12_68:
	add	x9, x19, x1
	cmp	x8, #0
	csel	x0, xzr, x9, eq
	ldp	x29, x30, [sp, #112]
	ldp	x20, x19, [sp, #96]
	ldp	x22, x21, [sp, #80]
	ldp	x24, x23, [sp, #64]
	add	sp, sp, #128
	ret
LBB12_69:
Lloh0:
	adrp	x2, l_anon.3ceea9e0fd118baa6e0d11c94f689db4.1@PAGE
Lloh1:
	add	x2, x2, l_anon.3ceea9e0fd118baa6e0d11c94f689db4.1@PAGEOFF
	mov	x0, x8
	mov	x1, x20
	bl	__ZN4core9panicking18panic_bounds_check17he28cb42adadba34fE
LBB12_70:
Lloh2:
	adrp	x2, l_anon.3ceea9e0fd118baa6e0d11c94f689db4.1@PAGE
Lloh3:
	add	x2, x2, l_anon.3ceea9e0fd118baa6e0d11c94f689db4.1@PAGEOFF
	mov	x0, #0
	mov	x1, #0
	bl	__ZN4core9panicking18panic_bounds_check17he28cb42adadba34fE
LBB12_71:
	cbz	x11, LBB12_77
	neg	x10, x21
	sub	x11, x19, x21
	mov	x1, x20
LBB12_73:
	add	x8, x10, x1
	cmp	x8, x20
	b.hs	LBB12_89
	ldrb	w8, [x11, x1]
	lsr	x8, x9, x8
	tbnz	w8, #0, LBB12_76
	mov	x8, #0
	sub	x1, x1, x21
	cmp	x1, x21
	b.hs	LBB12_73
	b	LBB12_68
LBB12_76:
Lloh4:
	adrp	x2, l_anon.3ceea9e0fd118baa6e0d11c94f689db4.1@PAGE
Lloh5:
	add	x2, x2, l_anon.3ceea9e0fd118baa6e0d11c94f689db4.1@PAGEOFF
	mov	x1, x21
	bl	__ZN4core9panicking18panic_bounds_check17he28cb42adadba34fE
LBB12_77:
	cmp	x11, x21
	b.ne	LBB12_84
	mov	x10, x20
	b	LBB12_80
LBB12_79:
	mov	x8, #0
	mov	x10, x11
	cmp	x11, x21
	b.lo	LBB12_68
LBB12_80:
	sub	x1, x10, x21
	cmp	x1, x20
	b.hs	LBB12_90
	ldrb	w8, [x19, x1]
	lsr	x12, x9, x8
	mov	x11, x1
	tbz	w12, #0, LBB12_79
	ldrb	w11, [x22]
	cmp	w11, w8
	b.eq	LBB12_67
	sub	x11, x10, #1
	b	LBB12_79
LBB12_84:
	mov	x11, x20
	b	LBB12_86
LBB12_85:
	mov	x8, #0
	mov	x11, x12
	cmp	x12, x21
	b.lo	LBB12_68
LBB12_86:
	sub	x1, x11, x21
	cmp	x1, x20
	b.hs	LBB12_90
	ldrb	w8, [x19, x1]
	lsr	x13, x9, x8
	mov	x12, x1
	tbz	w13, #0, LBB12_85
	ldrb	w12, [x22]
	cmp	w12, w8
	csinc	x8, x10, xzr, eq
	sub	x12, x11, x8
	b	LBB12_85
LBB12_89:
	mov	x1, x8
LBB12_90:
Lloh6:
	adrp	x2, l_anon.3ceea9e0fd118baa6e0d11c94f689db4.1@PAGE
Lloh7:
	add	x2, x2, l_anon.3ceea9e0fd118baa6e0d11c94f689db4.1@PAGEOFF
	mov	x0, x1
	mov	x1, x20
	bl	__ZN4core9panicking18panic_bounds_check17he28cb42adadba34fE
LBB12_91:
Lloh8:
	adrp	x2, l_anon.3ceea9e0fd118baa6e0d11c94f689db4.1@PAGE
Lloh9:
	add	x2, x2, l_anon.3ceea9e0fd118baa6e0d11c94f689db4.1@PAGEOFF
	mov	x0, x8
	mov	x1, x21
	bl	__ZN4core9panicking18panic_bounds_check17he28cb42adadba34fE
	.loh AdrpAdd	Lloh0, Lloh1
	.loh AdrpAdd	Lloh2, Lloh3
	.loh AdrpAdd	Lloh4, Lloh5
	.loh AdrpAdd	Lloh6, Lloh7
	.loh AdrpAdd	Lloh8, Lloh9
	.cfi_endproc

	.globl	_strchr
	.p2align	2
_strchr:
	ldrb	w9, [x0]
	cbz	w9, LBB13_4
	and	w8, w1, #0xff
LBB13_2:
	cmp	w9, w8
	b.eq	LBB13_5
	ldrb	w9, [x0, #1]!
	cbnz	w9, LBB13_2
LBB13_4:
	mov	x0, #0
LBB13_5:
	ret

	.globl	_strrchr
	.p2align	2
_strrchr:
	ldrb	w10, [x0]
	cbz	w10, LBB14_4
	mov	x8, x0
	mov	x0, #0
	and	w9, w1, #0xff
LBB14_2:
	cmp	w10, w9
	csel	x0, x8, x0, eq
	ldrb	w10, [x8, #1]!
	cbnz	w10, LBB14_2
	ret
LBB14_4:
	mov	x0, #0
	ret

	.globl	_strlen
	.p2align	2
_strlen:
	mov	x9, #0
LBB15_1:
	mov	x8, x9
	ldrb	w10, [x0, x9]
	add	x9, x9, #1
	cbnz	w10, LBB15_1
	mov	x0, x8
	ret

	.globl	_strnlen
	.p2align	2
_strnlen:
	cbz	x1, LBB16_6
	mov	x8, x0
	mov	x0, #0
LBB16_2:
	ldrb	w9, [x8, x0]
	cbz	w9, LBB16_5
	add	x0, x0, #1
	cmp	x1, x0
	b.ne	LBB16_2
	mov	x0, x1
LBB16_5:
	ret
LBB16_6:
	mov	x0, #0
	ret

	.globl	_strnlen_s
	.p2align	2
_strnlen_s:
	mov	x8, x0
	mov	x0, #0
	cbz	x8, LBB17_6
	cbz	x1, LBB17_6
	mov	x0, #0
LBB17_3:
	ldrb	w9, [x8, x0]
	cbz	w9, LBB17_6
	add	x0, x0, #1
	cmp	x1, x0
	b.ne	LBB17_3
	mov	x0, x1
LBB17_6:
	ret

	.globl	_strcmp
	.p2align	2
_strcmp:
	ldrb	w9, [x0]
	cbz	w9, LBB18_5
	add	x8, x0, #1
LBB18_2:
	ldrb	w10, [x1]
	cbz	w10, LBB18_5
	subs	w0, w9, w10
	b.ne	LBB18_6
	add	x1, x1, #1
	ldrb	w9, [x8], #1
	cbnz	w9, LBB18_2
LBB18_5:
	mov	w0, #0
LBB18_6:
	ret

	.globl	_strncmp
	.p2align	2
_strncmp:
	.cfi_startproc
LBB19_1:
	cbz	x2, LBB19_4
	ldrb	w9, [x0], #1
	ldrb	w10, [x1], #1
	sub	w8, w9, w10
	sub	x2, x2, #1
	cmp	w8, #0
	ccmp	w9, #0, #4, eq
	ccmp	w10, #0, #4, ne
	b.ne	LBB19_1
	mov	x0, x8
	ret
LBB19_4:
	mov	w0, #0
	ret
	.cfi_endproc

	.globl	_strspn
	.p2align	2
_strspn:
	movi.2d	v0, #0000000000000000
	stp	q0, q0, [sp, #-32]!
	ldrb	w10, [x1]
	cbz	w10, LBB20_3
	add	x8, x1, #1
	mov	w9, #1
	mov	x11, sp
LBB20_2:
	sxtb	x10, w10
	lsr	x12, x10, #3
	and	x12, x12, #0x1ffffffffffffff8
	ldr	x13, [x11, x12]
	lsl	x10, x9, x10
	orr	x10, x13, x10
	str	x10, [x11, x12]
	ldrb	w10, [x8], #1
	cbnz	w10, LBB20_2
LBB20_3:
	ldrsb	w9, [x0]
	mov	x8, x0
	cmp	w9, #1
	b.lt	LBB20_7
	mov	x10, sp
	mov	x8, x0
LBB20_5:
	lsr	w11, w9, #3
	and	x11, x11, #0x18
	ldr	x11, [x10, x11]
	lsr	x9, x11, x9
	tbz	w9, #0, LBB20_7
	ldrsb	w9, [x8, #1]!
	cmp	w9, #0
	b.gt	LBB20_5
LBB20_7:
	sub	x0, x8, x0
	add	sp, sp, #32
	ret

	.globl	_strcspn
	.p2align	2
_strcspn:
	movi.2d	v0, #0000000000000000
	stp	q0, q0, [sp, #-32]!
	ldrb	w10, [x1]
	cbz	w10, LBB21_3
	add	x8, x1, #1
	mov	w9, #1
	mov	x11, sp
LBB21_2:
	sxtb	x10, w10
	lsr	x12, x10, #3
	and	x12, x12, #0x1ffffffffffffff8
	ldr	x13, [x11, x12]
	lsl	x10, x9, x10
	orr	x10, x13, x10
	str	x10, [x11, x12]
	ldrb	w10, [x8], #1
	cbnz	w10, LBB21_2
LBB21_3:
	ldrb	w10, [x0]
	mov	x8, x0
	cbz	w10, LBB21_8
	mov	x9, sp
	mov	x8, x0
	b	LBB21_6
LBB21_5:
	ldrb	w10, [x8, #1]!
	cbz	w10, LBB21_8
LBB21_6:
	tbnz	w10, #7, LBB21_5
	mov	w10, w10
	lsr	x11, x10, #3
	and	x11, x11, #0x1ffffff8
	ldr	x11, [x9, x11]
	lsr	x10, x11, x10
	tbz	w10, #0, LBB21_5
LBB21_8:
	sub	x0, x8, x0
	add	sp, sp, #32
	ret

	.globl	_strpbrk
	.p2align	2
_strpbrk:
	movi.2d	v0, #0000000000000000
	stp	q0, q0, [sp, #-32]!
	ldrb	w10, [x1]
	cbz	w10, LBB22_3
	add	x8, x1, #1
	mov	w9, #1
	mov	x11, sp
LBB22_2:
	sxtb	x10, w10
	lsr	x12, x10, #3
	and	x12, x12, #0x1ffffffffffffff8
	ldr	x13, [x11, x12]
	lsl	x10, x9, x10
	orr	x10, x10, x13
	str	x10, [x11, x12]
	ldrb	w10, [x8], #1
	cbnz	w10, LBB22_2
LBB22_3:
	ldrb	w9, [x0]
	cbz	w9, LBB22_8
	mov	x8, sp
	b	LBB22_6
LBB22_5:
	ldrb	w9, [x0, #1]!
	cbz	w9, LBB22_8
LBB22_6:
	tbnz	w9, #7, LBB22_5
	mov	w9, w9
	lsr	x10, x9, #3
	and	x10, x10, #0x1ffffff8
	ldr	x10, [x8, x10]
	lsr	x9, x10, x9
	tbz	w9, #0, LBB22_5
LBB22_8:
	ldrb	w8, [x0]
	cmp	w8, #0
	csel	x0, xzr, x0, eq
	add	sp, sp, #32
	ret

	.globl	_strcpy
	.p2align	2
_strcpy:
	mov	x8, #0
LBB23_1:
	ldrb	w9, [x1, x8]
	strb	w9, [x0, x8]
	add	x8, x8, #1
	cbnz	w9, LBB23_1
	ret

	.globl	_strncpy
	.p2align	2
_strncpy:
	ldrb	w8, [x1]
	cmp	w8, #0
	ccmp	x2, #0, #4, ne
	b.ne	LBB24_2
	mov	x11, #0
	b	LBB24_4
LBB24_2:
	mov	x10, #0
	add	x9, x1, #1
LBB24_3:
	strb	w8, [x0, x10]
	add	x11, x10, #1
	ldrb	w8, [x9, x10]
	cmp	w8, #0
	ccmp	x11, x2, #2, ne
	mov	x10, x11
	b.lo	LBB24_3
LBB24_4:
	add	x8, x0, x11
	sub	x9, x2, x11
	cmp	x9, #15
	b.ls	LBB24_11
	neg	w10, w8
	ands	x11, x10, #0x7
	add	x10, x8, x11
	b.eq	LBB24_8
	mov	x12, x11
LBB24_7:
	strb	wzr, [x8], #1
	subs	x12, x12, #1
	b.ne	LBB24_7
LBB24_8:
	sub	x9, x9, x11
	and	x11, x9, #0xfffffffffffffff8
	add	x8, x10, x11
	cmp	x11, #1
	b.lt	LBB24_10
LBB24_9:
	str	xzr, [x10], #8
	cmp	x10, x8
	b.lo	LBB24_9
LBB24_10:
	and	x9, x9, #0x7
LBB24_11:
	cbz	x9, LBB24_13
LBB24_12:
	strb	wzr, [x8], #1
	subs	x9, x9, #1
	b.ne	LBB24_12
LBB24_13:
	ret

	.globl	_stpcpy
	.p2align	2
_stpcpy:
	mov	x9, #0
LBB25_1:
	mov	x8, x9
	ldrb	w10, [x1, x9]
	strb	w10, [x0, x9]
	add	x9, x9, #1
	cbnz	w10, LBB25_1
	add	x0, x0, x8
	ret

	.globl	_strstr
	.p2align	2
_strstr:
	.cfi_startproc
	sub	sp, sp, #128
	.cfi_def_cfa_offset 128
	stp	x22, x21, [sp, #80]
	stp	x20, x19, [sp, #96]
	stp	x29, x30, [sp, #112]
	add	x29, sp, #112
	.cfi_def_cfa w29, 16
	.cfi_offset w30, -8
	.cfi_offset w29, -16
	.cfi_offset w19, -24
	.cfi_offset w20, -32
	.cfi_offset w21, -40
	.cfi_offset w22, -48
	mov	x19, x0
	ldrb	w8, [x1]
	cbz	w8, LBB26_9
	mov	x20, x1
	mov	x8, #0
LBB26_2:
	mov	x21, x8
	ldrb	w9, [x19, x8]
	add	x8, x8, #1
	cbnz	w9, LBB26_2
	mov	x8, #0
LBB26_4:
	mov	x22, x8
	ldrb	w9, [x20, x8]
	add	x8, x8, #1
	cbnz	w9, LBB26_4
	cmp	x21, #64
	b.hs	LBB26_7
	mov	x0, x19
	mov	x1, x21
	mov	x2, x20
	mov	x3, x22
	bl	__ZN6memchr6memmem9rabinkarp4find17hb8308d8f6c3e866fE
	b	LBB26_8
LBB26_7:
	bl	__ZN6memchr6memmem13FinderBuilder3new17h35105699d08ee389E
	add	x8, sp, #8
	mov	x1, x20
	mov	x2, x22
	bl	__ZN6memchr6memmem8Searcher3new17hb1f276ecc2aad8acE
	add	x0, sp, #8
	mov	x1, x19
	mov	x2, x21
	bl	__ZN6memchr6memmem6Finder4find17h3bef4616148b7a58E
LBB26_8:
	add	x8, x19, x1
	cmp	x0, #0
	csel	x19, xzr, x8, eq
LBB26_9:
	mov	x0, x19
	ldp	x29, x30, [sp, #112]
	ldp	x20, x19, [sp, #96]
	ldp	x22, x21, [sp, #80]
	add	sp, sp, #128
	ret
	.cfi_endproc

	.globl	_bcmp
	.p2align	2
_bcmp:
	cmp	x2, #8
	b.lo	LBB27_4
	orr	w8, w1, w0
	and	x8, x8, #0x7
	cbz	x8, LBB27_4
LBB27_2:
	ldr	x8, [x0]
	ldr	x9, [x1]
	cmp	x8, x9
	b.ne	LBB27_5
	add	x0, x0, #8
	add	x1, x1, #8
	sub	x2, x2, #8
	cmp	x2, #7
	b.hi	LBB27_2
LBB27_4:
	cbz	x2, LBB27_7
LBB27_5:
	ldrb	w8, [x0]
	ldrb	w9, [x1]
	subs	w8, w8, w9
	b.ne	LBB27_8
	add	x0, x0, #1
	add	x1, x1, #1
	subs	x2, x2, #1
	b.ne	LBB27_5
LBB27_7:
	mov	w8, #0
LBB27_8:
	mov	x0, x8
	ret

	.globl	_bcopy
	.p2align	2
_bcopy:
	mov	x8, x0
	mov	x0, x1
	mov	x1, x8
	b	_memmove

	.globl	_bzero
	.p2align	2
_bzero:
	cmp	x1, #15
	b.ls	LBB29_7
	neg	w8, w0
	ands	x9, x8, #0x7
	add	x8, x0, x9
	b.eq	LBB29_4
	mov	x10, x9
LBB29_3:
	strb	wzr, [x0], #1
	subs	x10, x10, #1
	b.ne	LBB29_3
LBB29_4:
	sub	x9, x1, x9
	and	x10, x9, #0xfffffffffffffff8
	add	x0, x8, x10
	cmp	x10, #1
	b.lt	LBB29_6
LBB29_5:
	str	xzr, [x8], #8
	cmp	x8, x0
	b.lo	LBB29_5
LBB29_6:
	and	x1, x9, #0x7
LBB29_7:
	cbz	x1, LBB29_9
LBB29_8:
	strb	wzr, [x0], #1
	subs	x1, x1, #1
	b.ne	LBB29_8
LBB29_9:
	ret

	.globl	_index
	.p2align	2
_index:
	ldrb	w9, [x0]
	cbz	w9, LBB30_4
	and	w8, w1, #0xff
LBB30_2:
	cmp	w9, w8
	b.eq	LBB30_5
	ldrb	w9, [x0, #1]!
	cbnz	w9, LBB30_2
LBB30_4:
	mov	x0, #0
LBB30_5:
	ret

	.globl	_rindex
	.p2align	2
_rindex:
	ldrb	w10, [x0]
	cbz	w10, LBB31_4
	mov	x8, x0
	mov	x0, #0
	and	w9, w1, #0xff
LBB31_2:
	cmp	w10, w9
	csel	x0, x8, x0, eq
	ldrb	w10, [x8, #1]!
	cbnz	w10, LBB31_2
	ret
LBB31_4:
	mov	x0, #0
	ret

	.globl	_ffs
	.p2align	2
_ffs:
	rbit	w8, w0
	clz	w8, w8
	cmp	w0, #0
	csinc	w0, wzr, w8, eq
	ret

	.globl	_ffsl
	.p2align	2
_ffsl:
	rbit	x8, x0
	clz	x8, x8
	cmp	x0, #0
	csinc	w0, wzr, w8, eq
	ret

	.globl	_ffsll
	.p2align	2
_ffsll:
	rbit	x8, x0
	clz	x8, x8
	cmp	x0, #0
	csinc	w0, wzr, w8, eq
	ret

	.globl	_strcasecmp
	.p2align	2
_strcasecmp:
	ldrb	w8, [x0]
	sub	w9, w8, #65
	cmp	w9, #26
	cset	w9, lo
	orr	w8, w8, w9, lsl #5
	ldrb	w9, [x1]
	sub	w10, w9, #65
	cmp	w10, #26
	cset	w10, lo
	orr	w9, w9, w10, lsl #5
	and	w10, w9, #0xff
	cmp	w10, #0
	and	w10, w8, #0xff
	ccmp	w10, #0, #4, ne
	b.eq	LBB35_5
	cmp	w10, w9, uxtb
	b.ne	LBB35_5
	add	x10, x0, #1
	add	x11, x1, #1
LBB35_3:
	ldrb	w8, [x10], #1
	sub	w9, w8, #65
	cmp	w9, #26
	cset	w9, lo
	orr	w8, w8, w9, lsl #5
	ldrb	w9, [x11], #1
	sub	w12, w9, #65
	cmp	w12, #26
	cset	w12, lo
	orr	w9, w9, w12, lsl #5
	and	w12, w9, #0xff
	cmp	w12, #0
	and	w12, w8, #0xff
	ccmp	w12, #0, #4, ne
	b.eq	LBB35_5
	cmp	w12, w9, uxtb
	b.eq	LBB35_3
LBB35_5:
	sub	w8, w8, w9
	sxtb	w0, w8
	ret

	.globl	_strncasecmp
	.p2align	2
_strncasecmp:
	.cfi_startproc
	cbz	x2, LBB36_4
LBB36_1:
	ldrb	w8, [x0]
	sub	w9, w8, #65
	cmp	w9, #26
	cset	w9, lo
	orr	w8, w8, w9, lsl #5
	ldrb	w9, [x1]
	sub	w10, w9, #65
	cmp	w10, #26
	cset	w10, lo
	orr	w9, w9, w10, lsl #5
	and	w10, w9, #0xff
	cmp	w10, #0
	and	w10, w8, #0xff
	ccmp	w10, #0, #4, ne
	b.eq	LBB36_5
	cmp	w10, w9, uxtb
	b.ne	LBB36_5
	add	x0, x0, #1
	add	x1, x1, #1
	subs	x2, x2, #1
	b.ne	LBB36_1
LBB36_4:
	mov	w0, #0
	ret
LBB36_5:
	sub	w8, w8, w9
	sxtb	w0, w8
	ret
	.cfi_endproc

	.globl	___rg_alloc
	.p2align	2
___rg_alloc:
	cmp	x1, #16
	b.hi	LBB37_2
	cmp	x0, x1
	b.hs	LBB37_4
LBB37_2:
	cmp	x1, x0
	b.ne	LBB37_5
	cmp	x1, #1, lsl #12
	b.hi	LBB37_5
LBB37_4:
	b	_mi_malloc
LBB37_5:
	b	_mi_malloc_aligned

	.globl	___rg_dealloc
	.p2align	2
___rg_dealloc:
	b	_mi_free

	.globl	___rg_realloc
	.p2align	2
___rg_realloc:
	mov	x1, x3
	cmp	x2, #16
	b.hi	LBB39_2
	cmp	x1, x2
	b.hs	LBB39_4
LBB39_2:
	cmp	x2, #1, lsl #12
	b.hi	LBB39_5
	cmp	x2, x1
	b.ne	LBB39_5
LBB39_4:
	b	_mi_realloc
LBB39_5:
	b	_mi_realloc_aligned

	.globl	___rg_alloc_zeroed
	.p2align	2
___rg_alloc_zeroed:
	cmp	x1, #16
	b.hi	LBB40_2
	cmp	x0, x1
	b.hs	LBB40_4
LBB40_2:
	cmp	x1, x0
	b.ne	LBB40_5
	cmp	x1, #1, lsl #12
	b.hi	LBB40_5
LBB40_4:
	b	_mi_zalloc
LBB40_5:
	b	_mi_zalloc_aligned

	.section	__TEXT,__const
l_anon.3ceea9e0fd118baa6e0d11c94f689db4.0:
	.ascii	"/Users/grayjack/.cargo/registry/src/github.com-1ecc6299db9ec823/memchr-2.5.0/src/memmem/mod.rs"

	.section	__DATA,__const
	.p2align	3
l_anon.3ceea9e0fd118baa6e0d11c94f689db4.1:
	.quad	l_anon.3ceea9e0fd118baa6e0d11c94f689db4.0
	.asciz	"^\000\000\000\000\000\000\000g\002\000\000\t\000\000"

	.section	__LLVM,__bitcode
	.p2align	4
l_rustc.embedded.module:
	.asciz	"\336\300\027\013\000\000\000\000\024\000\000\000\374O\000\000\377\377\377\377BC\300\3365\024\000\000\016\000\000\000b\f0\034\201\307\n\254`\013\255\020\007u\340\006p\340\006r\320\006\362P\017\363@\017m\020\007n`\007v\340\006p\320\006\356\220\016\347\200\016\364\300\016\371 D\0012\005\000!\f\000\000\206\017\000\000\013\002!\000\002\000\000\000\026\000\000\000\007\201#\221A\310\004I\006\02029\222\001\204\f%\005\b\031\036\004\213b\200\034E\002B\222\013B\344\0202\0248\b\030K\n2r\210Hp\304!#D\022\207\214\020A\222\002d\310\b\261\024 CF\210 \311\0012r\204\030*(*\2201|\260\\\221 \307\310\000\000\000\211 \000\000I\000\000\0002\"\310\t bF\000!+$\230\034!%$\230\034\031'\f\205\244\220`rd\\ $g\202\240\024j\216\000Q\257\300\r\004\n\021\270\002\2000\0020G\000\nf0\034\016F0\000L`\230#\000\003C\000\000\213\203!\026\000\300\301\020\000\000\340`\n\000\000\2608\230\002\0008\000\016f\000\000\026F8\000\314p\000\034\314\260\000\000\314p\000\000\314\000\000\000\fa\000\000\016f0\000\016FX,\214\2608\230\001p8\030\302\0008\034L\001\000\034\016\2079\202\300\024\006\200\007p8\002\340\240\002\007\r8\244!t\020\035a\2618B \240\002\2014\220J&\rX\244\002\004\030\235Pi\b\035Di\000\251HG8\034L\301\002\034\000\007\023x\f\301\002\000\016F\000\001L\341\001\034\000\007c\260\000\200\003\340`\b\303\341\0000\004+\0008\030\001p0\003\000p0\004\000p8\230\302\000\b\034<fX,<f8\034<f0\034\000f8\034\016\003\001F0\364\246\000R\220J\301J\001\002JpH\301\020\000\000\000\000Q\030\000\000\213\001\000\000\033\370 \370\377\377\377\377\001\360\003\000\016\200\b\370\003@\002(\302\034\344!\034\332\241\034\332\000\036\336!\035\334\201\036\312A\036\000wx\007wh\003v(\207p0\007\200\240\207p\220\207s(\007zh\203q\200\207z\000\302\001\036\340\201\035\312\241\r\302!\016\350\000\330@\b\002@\n\033\240!\000\022`\001H\001\250\202\000\t\322\000\r6\370\001\361\377\377\377\377\003`\n\200\037\000p\000\374\001 \001\024\320\007\2049\310C8\264C9\264\001<\274C:\270\003=\224\203<\000\356\360\016\356\320\006\354P\016\341`\016\000A\017\341 \017\347P\016\364\320\006\343\000\017\365\000\204\003<\300\003;\224C\033\204C\034\320\001\260A\016\212\377\377\377\377\037\000\2110\007y\b\207v(\2076\200\207wH\007w\240\207r\220\007\300\035\336\301\035\332\200\035\312!\034\314\001 \350!\034\344\341\034\312\201\036\332`\034\340\241\036\200p\200\007x`\207rh\203p\210\003:\0006\350\201\361\377\377\377\377\003\340\007\000\034\000\177\000H@E\230\203<\204C;\224C\033\300\303;\244\203;\320C9\310\003\340\016\357\340\016m\300\016\345\020\016\346\000\020\364\020\016\362p\016\345@\017m0\016\360P\017@8\300\003<\260C9\264A8\304\001\035\000\033\354\340\370\377\377\377\377\001\360\003\340\017\000\2110\007y\b\207v(\2076\200\207wH\007w\240\207r\220\007\300\035\336\301\035\332\200\035\312!\034\314\001 \350!\034\344\341\034\312\201\036\332`\034\340\241\036\200p\200\007x`\207rh\203p\210\003:\0006\020H\000X\033\350 \371\377\377\377\377\001\360\003@\"\314A\036\302\241\035\312\241\r\340\341\035\322\301\035\350\241\034\344\001p\207wp\2076`\207r\b\007s\000\bz\b\007y8\207r\240\2076\030\007x\250\007 \034\340\001\036\330\241\034\332 \034\342\200\016\200\rx\240\374\377\377\377\377\000\370\001\000\007\300\037\000\022a\016\362\020\016\355P\016m\000\017\357\220\016\356@\017\345 \017\200;\274\203;\264\001;\224C8\230\003@\320C8\310\3039\224\003=\264\3018\300C=\000\341\000\017\360\300\016\345\320\006\341\020\007t\000l \226\000\240\203\r\006#\000\013Pm \232\000\2506\360\201\363\377\377\377\377\003\320\006\200\037\000p\000\374\001 \001\025a\016\362\020\016\355P\016m\000\017\357\220\016\356@\017\345 \017\200;\274\203;\264\001;\224C8\230\003@\320C8\310\3039\224\003=\264\3018\300C=\000\341\000\017\360\300\016\345\320\006\341\020\007t\000l0\236\000X\200j\003\036@\377\377\377\377?\000~\000\374\001 \001\025a\016\362\020\016\355P\016m\000\017\357\220\016\356@\017\345 \017\200;\274\203;\264\001;\224C8\230\003@\320C8\310\3039\224\003=\264\3018\300C=\000\341\000\017\360\300\016\345\320\006\341\020\007t\000l\320\203\350\377\377\377\377\007\240\r\000?\000\340\000\370\003@\"\314A\036\302\241\035\312\241\r\340\341\035\322\301\035\350\241\034\344\001p\207wp\2076`\207r\b\007s\000\bz\b\007y8\207r\240\2076\030\007x\250\007 \034\340\001\036\330\241\034\332 \034\342\200\016\200\r\206\024\000\026@\007\033\364`\372\377\377\377\377\001\360\003\000\016\200?\000$\200\016\bs\220\207ph\207rh\003xx\207tp\007z(\007y\000\334\341\035\334\241\r\330\241\034\302\301\034\000\202\036\302A\036\316\241\034\350\241\r\306\001\036\352\001\b\007x\200\007v(\2076\b\2078\240\003`\003\037P\377\377\377\377?\000\246\000\370\001\360\007\200\004P@\037\020\346 \017\341\320\016\345\320\006\360\360\016\351\340\016\364P\016\362\000\270\303;\270C\033\260C9\204\2039\000\004=\204\203<\234C9\320C\033\214\003<\324\003\020\016\360\000\017\354P\016m\020\016q@\007\300\006\247\n\200\004X\000R0\2724\b\322\000\0256\030\226\000\220\002 \006\033\232k\000\022\200\024\2003\000\252 \b68X\000$\300\002\220\202\321\255A\220\006x\260\241\311\004 \001H\0018\003\240\n\202`C\243\005@\002\220\002p\006@\025\004\301\006c\003\000R\000\304`\203\303\005@\002\220\002P\005\001\022\244\001*lp\272\000H\000R\000\252 @\2024\300\203\r\216\027\000\t@\n@\025\004D\220\006\310\206\346#\200\004 \005\340\f\200*\b\202\rx\000\006\377\377\377\377?\000d\0008@\004H\2049\310C8\264C9\264\001<\274C:\270\003=\224\203<\000\356\360\016\356\320\006\354P\016\341`\016\000A\017\341 \017\347P\016\364\320\006\343\000\017\365\000\204\003<\300\003;\224C\033\204C\034\320\001\260\301\t\203\001H\000R\000\252 @\2024\3006@b\360\377\377\377\377\003\320\006\200)\000\247\000\370\001 \001}\000\320\301\006c\f\002`\001\350`\003A\006\004\300\007\033\2442\370\377\377\377\377\0010\005\340\024\000?\000\376\000\220\000\n\250\003\240\0176\020f \000|\260\001:\203\377\377\377\377\037\2006\000L\0018\005\300\017\200?\000$\240\0176\020h\020\000|\260\201H\003\001X6@j\360\377\377\377\377\003p\n\200\037\000\177\000H\000\005\324\001\320\007\033\2345\370\377\377\377\377\001\210\003\340\024\000?\000\376\000\220\200>\330@\260\301\377\377\377\377\017\200\264\201h\003\0018\203\r\220\033\004@\002,\000)\000g`ti\020\244\001*l\200\336 \000\022\200\024\2003\000\252 @\2024@\205\r\020\034\004@\002,\000)\000g`tk\020\244\001\036l\200\342 \000\022\200\024\2003\000\252 @\2024\300\203\r\220\034\004@\002\220\002p\006@\025\004D\220\006\310\006c\016\376\377\377\377\177\000\"@\332\000\321\301\000$\000)\000g\000TA\200\004i\200m`\352 \000H\0018\203 @\2024\000\003\000\000\000I\030\000\0003\000\000\000\023\204@\230 \004\303\204\200\230\020\024\023\002c\202p \023\204\004\2310(\0133A0\232\t\202\363L\020\234f\302`<\314\204\341x\230\t\302\301L\020 f\302\020I\314\204AA\230\tC\2640\023\202dB0M\b\250\tDQY\327\204\241\300\262\tC\241]\023\204b\2330\024\\6A(\272\tD\261i\327\004\242\360\262o\202\000\006a0A(\262\t\203\030\214\001\031L\020\312\300\f&\fg\200\006i0!P\203\t\301\032L\020\330 \233\020\264\301\004\201\r\266\t\004\033\270\201uM\030\330\340\r\262\t\003\033h\327\204\201\r\340 \233 \260A\034L \330`\323\256\t\004\033\310A\366M\020\346\200\016&\004u0!`\003\000\000\000\000\023\260p\220\207v\260\003:h\203p\200\007x`\207rh\203v\b\207qx\207y\300\2078\210\0037\200\0037\200\203\raP\016m\320\016z\360\016m\220\016v@\007z`\007t\320\006\351\020\007r\200\007z\020\007r\200\007m\340\016s \007z`\007t\320\006\263\020\007r\200\007J\017\b\021\222A\206\214\024\031\0014B\230\234Zo|\232\235\026\217]\346r9f\313\341\314\255\361\271\356\202\355\230\2003\030\206YH\002\000\000\002\000\000\200\340\f\000`\307t\006gP\f\265\220\020\000\000\004\000\000\000\301\031\000\300\220\312\025\020\004\000\200\000\000\000 \000\000\000\000\000\340\f\200!\225-D\t\000\000\002\000\000@\000\000\000\000\000\300\031\000C\252s\230\024\000\000\006\000\000\200\000\000\000\000\000\2003\000\206T\372`0\000\000\020\000\000\000\001\000\000@\001\000g\000\f\251@\342`\000\000 \000\000\000\002\000\000\200\002\000\316\000\030R\235\204\321\000\000P\000\000\000\004\000\000\000\000\000\234\0010\244j\t\203\001\000\300\000\000\000\b\000\000\000\000\0008\003`H5\023\206\003\000\300\001\000\000\020\000\000\000\024\000p\006\300\220*'\216\007\000\000\004\000\000 \000\000\000\000\000\340\f\200!\025X \017\000\000\004\000\000@\000\000\000P\000\300\031\000C*\2648\034\000\000\016\000\000\200\000\000\000\240\000\2003\000\206Toa@\000\000\020\000\000\000\001\000\000@\001\000g\000\f\251\352\342\200\000\000 \000\000\000\002\000\000\200\002\000\316\000\030R\361\205\021\001\000\220\000\000\000\004\000\000\000\000\000\234\0010\244\022\215#\002\000 \001\000\000\b\000\000\000\000\0008\003`H\225\032\206\004\000\200\002\000\000\020\000\000\000\000\000p\006\300\220\3525\216\t\000\000\005\000\000 \000\000\000\000\000\340\f\200!\225m$\023\000\000\013\000\000@\000\000\000\000\000\300\031\000C\252\3370(\000\000\030\000\000\200\000\000\000\000\000\2003\000\206T\345q4\000\0004\000\000\000\001\000\000@\001\000g\000\f\251\330\303\250\000\000p\000\000\000\002\000\000\000\000\000\316\000\030R\311\307Q\001\000\340\000\000\000\004\000\000\000\000\000\234\0010\244\312\217\303\002\000\340\001\000\000\b\000\000\000\000\0008\003`H\005\"\206\005\000\000\004\000\000\020\000\000\000\000\000p\006\300\220\312D\016\007\000\200\b\000\000 \000\000\000\000\000\340\f\200!U\213\030\026\000\000\022\000\000@\000\000\000\000\000\300\031\000C\252\0311,\000\000\b\000\000\200\000\000\000\240\000\2003\000\206T9B4\000\000\024\000\000\000\001\000\000\000\000\000g\000\f\251z\244\270\000\000\230\000\000\000\002\000\000\000\000\000\316\000\030R\211I\201\001\000@\001\000\000\004\000\000\000\000\000\234\0010\244:\223\"\002\000 \001\000\000\b\000\000\000\000\0008\003`H\305&F\004\000@\002\000\000\020\000\000\000\000\000p\006\300\220JN\206\f\000\200\n\000\000 \000\000\000\000\000\340\f\200!U\235\020\032\000\000\025\000\000@\000\000\000\000\000\300\031\000C\252<)4\000\000*\000\000\200\000\000\000\000\000\2003\000\206T~\242P\000\0000\000\000\000\001\000\000\000\000\000g\000\f\251Pei\000\000h\000\000\000\002\000\000\200\002\000\316\000\030R\315\212\262\001\000@\000\000\000\004\000\000\000\000\000\234\0010\244\352\025\206\003\000\200\000\000\000\b\000\000\000\000\0008\003`H\225.L\007\000\000\001\000\000\020\000\000\000\000\000p\006\300\220\252^\242\r\000\000\002\000\000 \000\000\000\000\000\340\f\200!\225\311\310\301\007\004\200\005\000\000\020\000\000\000\000\000p\006\300\220\no\354\340\002\002\340\002\000\000\b\000\000\000\000\0008\003`H\345>t\320\006@\000`\000\000\000\001\000\000\000\000\000g\000\f\251\304\b\017\334\000\b\200\f\000\000 \000\000\000\000\000\340\f\200!\225.\305\301\033\000\001\240\001\000\000\004\000\000\000\000\000\234\0010\244Z\251:h\003 \0000\000\000\200\000\000\000\000\000\2003\000\206T\240\225\007p\000\004\300\006\000\000\020\000\000\000\000\000p\006\300\220*\277\356 \016\200\000\340\000\000\000\002\000\000\000\000\000\316\000\030R\301\331\036\310\001\020\000\035\000\000@\000\000\000\000\000\300\031\000C\252u\323\2039\000\002\300\003\000\000\b\000\000\000\000\0008\003`HUvv@\007@\000|\000\000\000\001\000\000\000\000\000g\000\f\251v/\251\003 \000\b\000\000\200\000\000\000\000\000\2003\000\206T\344\027m@\000\020\000\000\000\001\000\000\000\000\000g\000\f\251\352/\251\003 \000\b\000\000\200\000\000\000\000\000\2003\000\206T\376\027m@\000\020\000\000\000\001\000\000\000\000\000g\000\f\251^0P\354\000\b\000\002\000\000 \000\000\000\000\000\340\f\200!U\016\006\322\035\000\001@\000\000\000\004\000\000\000\000\000\234\0010\244Z\303@\302\003 \000\300\000\000\000\000\000\000\000\000\000\340\f\200!U\037\006u@\007@\000|\000\000\000\001\000\000\000\000\000g\000\f\251\3441h\362\000\b\2000\000\000\000\000\000\000\000\000\0008\003`H\365\217A\243\007@\000\204\001\000\000\000\000\000\000\000\000\300\031\000C*\226\f\216\004\b\000\002\000\000 \000\000\000\000\000\340\f\200!\325L\006\326\036\000\001 \006\000\000\000\000\000\000\000\000\000g\000\f\251\3222\240\366\000\b\0001\000\000\000\000\000\000\000\000\0008\003`H\325\227A\303\007@\000\214\001\000\000\000\000\000\000\000\000\300\031\000C*\325\f\310\300\017\200\000 \003\000\000\000\000\000\000\000\000\2003\000\206T\356\0314|\000\004\300\030\000\000\000\000\000\000\000\000\000\234\001 \261A\240\260\332\003\000@\026\b\000)\000\000\0002\036\230\034\031\021L\220\214\t&G\306\004C:\214\000\024B\021\224`\000-\312\241\bJ\240@?F\000J\210\000#\000$H_x\251\232+\223\233{9\223\013\313S\013\033[{q\031\013\223;{{\221+;K\233\243\223\313{\231\223\033{9K\243C\253\023s\031{kk\211)\033\033\263\221\311\311!\023\313)\033\303\221\231yi+k\033C\223k\221q\251q\201y\231\223\033{i+kk+k{i{#s\221\233\243\001\006Q\"$\344\005\000\000\000\000\000\000p&\000\000\220\000\000\000@\005\024\000S\000\261\030\000\000\254\000\000\0003\b\200\034\304\341\034f\024\001=\210C8\204\303\214B\200\007yx\007s\230q\f\346\000\017\355\020\016\364\200\0163\fB\036\302\301\035\316\241\034f0\005=\210C8\204\203\033\314\003=\310C=\214\003=\314x\214tp\007{\b\007yH\207pp\007zp\003vx\207p \207\031\314\021\016\354\220\016\3410\017n0\017\343\360\016\360P\0163\020\304\035\336!\034\330!\035\302a\036f0\211;\274\203;\320C9\264\003<\274\203<\204\003;\314\360\024v`\007{h\0077h\207rh\0077\200\207p\220\207p`\007v(\007v\370\005vx\207w\200\207_\b\207q\030\207r\230\207y\230\201,\356\360\016\356\340\016\365\300\016\3540\003b\310\241\034\344\241\034\314\241\034\344\241\034\334a\034\312!\034\304\201\035\312a\006\326\220C9\310C9\230C9\310C9\270\3038\224C8\210\003;\224\303/\274\203<\374\202;\324\003;\260\303\f\307i\207pX\207rp\203th\007x`\207t\030\207t\240\207\031\316S\017\356\000\017\362P\016\344\220\016\343@\017\341 \016\354P\0163 (\035\334\301\036\302A\036\322!\034\334\201\036\334\340\034\344\341\035\352\001\036f\030Q8\260C:\234\203;\314P$v`\007{h\0077`\207wx\007x\230QL\364\220\017\360P\0163\036j\036\312a\034\350!\035\336\301\035~\001\036\344\241\034\314!\035\360a\006T\205\2038\314\303;\260C=\320C9\374\302<\344C;\210\303;\260\303\214\305\n\207y\230\207w\030\207t\b\007z(\007r\230\201\\\343\020\016\354\300\016\345P\016\3630#\301\322A\036\344\341\027\330\341\035\336\001\036fH\031;\260\203=\264\203\033\204\3038\214C9\314\303<\270\3019\310\303;\324\003<\314H\264q\b\007v`\007q\b\207qX\207\031\333\306\016\354`\017\355\340\006\360 \017\3450\017\345 \017\366P\016n\020\016\3430\016\3450\017\363\340\006\351\340\016\344P\016\3700#\342\354a\034\302\201\035\330\341\027\354!\035\346!\035\304!\035\330!\035\350!\037f \235;\274C=\270\0039\224\2039\314X\274pp\007wx\007z\b\007zH\207wp\207\031\313\347\016\3570\017\341\340\016\351@\017\351\240\017\3450\303\001\003s\250\007w\030\207_\230\207pp\207t\240\207t\320\207r\230\201\204A9\340\3038\260C=\220C9\314@\304\240\035\312\241\035\340A\036\336\301\034f$c0\016\341\300\016\3540\017\351@\017\345\000\000\000y \000\000\013\001\000\000r\036H C\210\f\031\tr2H #\201\214\221\221\321D\240\020(d<12B\216\220!\243\350`\263\007\211)\310B;\344\203\032\330\201\035\350\201)\230\202,\364A*\000\000\000\000PIC Level_ZN4core5slice29_$LT$impl$u20$$u5b$T$u5d$$GT$4fill17h4d595581f2a57013E_ZN4core5slice29_$LT$impl$u20$$u5b$T$u5d$$GT$4fill17h4d595581f2a57013E: argument 0_ZN74_$LT$$u5b$T$u5d$$u20$as$u20$core..slice..specialize..SpecFill$LT$T$GT$$GT$9spec_fill17hf9557d5fa8e02e14E_ZN74_$LT$$u5b$T$u5d$$u20$as$u20$core..slice..specialize..SpecFill$LT$T$GT$$GT$9spec_fill17hf9557d5fa8e02e14E: argument 0_ZN6memchr6memmem4find17hfe0e03c64e77e3c4E_ZN6memchr6memmem4find17hfe0e03c64e77e3c4E: argument 1_ZN6memchr6memmem4find17hfe0e03c64e77e3c4E: argument 0_ZN7rbitset21BitSet$LT$u64$C$_$GT$3new17h45705c260f59b8daE_ZN7rbitset21BitSet$LT$u64$C$_$GT$3new17h45705c260f59b8daE: argument 0_ZN7rbitset19BitSet$LT$T$C$_$GT$16insert_unchecked17hc82e0b3a5c7e93edE_ZN7rbitset19BitSet$LT$T$C$_$GT$16insert_unchecked17hc82e0b3a5c7e93edE: argument 0_ZN7rbitset19BitSet$LT$T$C$_$GT$8contains17h13aa9381ea3cbaabE_ZN7rbitset19BitSet$LT$T$C$_$GT$8contains17h13aa9381ea3cbaabE: argument 0\000#\b\213*\214 ,\2530\202p\230\302\b\302\221\n3\fO\000\315 D\222\214\004&(#66\2736\227\2667\262:\2662\0273\266\260\263\271Q\002\t\000\000\251\030\000\000%\000\000\000\013\nr(\207w\200\007zXp\230C=\270\3038\260C9\320\303\202\346\034\306\241\r\350A\036\302\301\035\346!\035\350!\035\336\301\035\0264\343`\016\347P\017\341 \017\344@\017\341 \017\347P\016\364\260\200\201\007y(\207p`\007vx\207q\b\007z(\007rXp\234\3038\264\001;\244\203=\224\303\002k\034\330!\034\334\341\034\334 \034\344a\034\334 \034\350\201\036\302a\034\320\241\034\310a\034\302\201\035\330a\301\001\017\364 \017\341P\017\364\200\016\000\000\000\000\321\020\000\000\006\000\000\000\007\314<\244\203;\234\003;\224\003=\240\203<\224C8\220\303\001\000\000\000a \000\000\003\000\000\000\023\004\302,A0K\020\000\000\000\000a \000\000\003\000\000\000\023\004\302,A0K\020\000\000\000\000a \000\000\001\000\000\000\023\004\201\002a \000\000\020\000\000\000\023\004\304pC \201\301,\203\020\0049\004`\304\340(\203\020\004\003:\350\202b\030=\b\202\321\204\000\030M\020\202\341\006\001\003\203\036\020\024a\226A\030\204Y\202a\240\002\000\003A\b6\000\000\000\000a \000\000\020\000\000\000\023\004\304pC \201\301,\203\020\0049\004`\304\340(\203\020\004\003:(\203\240\030F\017\202`4!\000F\023\204`\270A\300\300\240\007\004E\230e\020\006a\226`\030\250\000\300@\020\202\r\000\000\000a \000\000:\000\000\000\023\004I,\020\000\000\000\003\000\000\000t(\201r\250\210\032 \317\b\000\000\303\r\006!\006\231\0342\223C^ \354\005\210\0167\004\\\030L7\004\2071\3130\004\301@\305\241\001\0371P\001x\300F\fT\000b\000\\\304p\303\020\006`0\313\200\b\301@\005@\004\3110P\001 A2\fT\034L0\f\263\004\305@\305\021\021h\000\fT\000\013\341\006\300@\005\260\020n\000\220p $\034\310p\203\020\200\301,\003!\004\375 \024Y?\b\205vH\006\303\r\301&\006\263\fC\020\fT\000\215\241\t\003\025@ch\302@\305\321\030\232@C \320\020\b\303\rB\000\006\263\f\306\021\364\200`\214A\017\b\006\031\234!\0060\334\020\340\001\030\3142 E\220\307\"\362X\004\nA\b\314\022 \003\035\213p\240C\200\016\306\006\000\000a \000\000H\000\000\000\023\004I,\020\000\000\000\005\000\000\000t(\201r(\217\202(\220\002\252\bZ\224\377\000\000\000\000\000\3610\000\000\n\000\000\000+\204JX1X\325\260B\270\210\025\003v\025+\204LX1h\331\260B\330\210\025\003\267\025\033\004\314\332 p\032\000\000\000\251\004`\270A9\304`\226\201\b\202\201\212\343\016\016\013\030\250\000\342\340\340\200\036\020\002a\270a\370\300`\226a\020\202\201\n`\020\214\240\007\204\340\0316 \004$\000\206\033\002\002\ff\031\006!X*\251C\036\031\004q\201\244= \\\301p\203p\006`0\313`\024\301@\0050\024r@\364\200\020\\\303\006\204\000\005\300pC@\200\301,\203Q\004\247\031q\334\244\031\034\002\203\354\006.\020\026\003\355\006.\020\026\203\355\002.\020\366\022N{@x\202\341\006\301\016\314`\226\0019\202c\310@g\t\202\201\n`@\310\300\0306 \002\203\000\372A\b\316`\270!(\310`\226\0019\202\200\030\000\003\000\000\000[\006\345\340\266\f\326\321\001\000\000\000\000\000\000\000a \000\000U\000\000\000\023\004M,\020\000\000\000\003\000\000\000t(\201r\250\210\362(\203\202\003\000\303\r\307 \006\263\fB\020\fT\034\265\220@\300@\005\020\013\t\005\fT\000\255\220`\300p\303\300\201\301,\303\302\004\351\034\362\274 .`t\270!\000\0030\230e\030\210\240\007\004I\350\001A\032N\"\342\002Hs8\344\005\223\0167\004g\000\006= \034\304,Ca\b\003\025\307@\310\202\200\001\006\003= l\002\005\201\320\003\202G\f\033\020\201\020\000\303\r\304\003\006\263\f\003\021\f7,o`\006\263\fJ\022\240\242\335\3001\235f\000P\n\016t\270\001\242\0033\230e8\222\000\353\240\b\201\013>\235%@\006*\016\344H\220\201\n\2009\nd\240\002\200\203\243A\372A\020\320\200\202\003\271\202\301\023\216\273@\330a\003\302\b\b\240\037\004\243\r\206\033\002\214\ff\031\220$\350\001\001\f\272\036\020\300\300;0\200\003\235%\b\006*\200D!\205b\240\002(\024T(H8\220a\003B\b\b\240\037\004\241\016\372A \354`\270A\b\0032\230eP\222`\367`\240\342\030\030\232\b0\310\003\b\350\001A\016\004\n\002\241\007\2049 \206\r\210@\b\200\341\006\302\016\300`\226aa\002\000\000\000\000a \000\000\024\000\000\000\023\004D,\020\000\000\000\001\000\000\000t(\001\000= \024B\022\001\230%\b\006*\000\006X\204\201\n\000\002\016a\270! \310`\226A\030\002\032\002a\330\200\030\202\000\350\001a8z@(\220\341\206\341\000\203Y\206!\b\006*\0003\b\fa\003\000a \000\000\274\000\000\000\023\004\\,\020\000\000\000\003\000\000\000t(\201r\250\210\362(\203\202\003\000\303\rG\006\006\263\fP\020d\022\200\021\203\243\fB\020\f\350\200\f\202%\031M\b\200\341\206\240\003\203Y\006a\b\206\033\030D\ff\031&)\030M \202\013\032\030n\b\0261\230e(\210`\240\342\250\005\206\030\006*\200X`\314`\030\250\000Z\201Q\203a\270a(\0030\230ep\236 \257C\336\031\004q\001\245\303\rA\032\200\301,\203q\004= lB\017\b\333p\f\021\027`\232\303!/\330t\270!\200\0030\350\001\341 f\031\220D\030\2508\206\203\034\n\f\300\000\006z@ \003\201\202@\350\001\341\f\210a\003\"\020\002`\270\201x\300`\226\3018\202\341\206\005\017\314`\226\241a\002T\304\340\006\216)\003\315\000\240\024\034\350p\003\324\007f0\313\2400\001\372A\021\002\027\234\201\316\022,\003\025\007\242$\313@\005\300(\3052P\001\300\201\322,\375 \bp@\301\201\\\301\340\t\307] \354\260\001a\004\004\320\017\202Q\007\303\r\001F\006\263\f\013\023\364\200\000\006]\017\b`\340\035\030\340\201\316\022\020\003\025\300\321\230\0022P\001\034\215) \024\034\310\260\0011\004\004\320\017\302\320\007\375 \f~0\334 \204\001\031\31424L\320\003\002)\314\301,\0014Pq\f\017Z\020\030\210\002\004\364\2000\007\002\005\201\320\003\002\035\020\303\006D \004\300p\003q\007`0\313\340<\301@\t\3408`\021\201\005\000\026\333\006=@\324\377\377\377\377\000\310\377\377\377\377p\364\000Q\377\377\377\377\0030\377\377\377\377\3031\002Q\377\377\377\377\303\221\n\312pC\340\013`0\313\000I\301@\005\200D`!\fT\000H\004\026\302@\305\201D>!\314\022l9\013\207\274q\b\342\002X\320\341\206\240\034\300`\226\201\252\202\036\020nA\350\001\341\026\206\263\005\".\240\005\315\341\220\027\334\202\0167\004\354\000\006= \034\304,\203u\t\003\025\307P\361\306\204\001/\300@\017\b\340 P\020\b= \214\0031l@\004B\000\f7\020\017\030\3142PU0\334\260\320\203\031\3142hQ\200\212/\334\3001\341\240\031\000\224\202\003\035n\200\362\301\ff\031\260(@}(B\340\202q\320Y\202l\240\342@\260$\033\250\000\030\254\310\006*\0008\300\232\254\037\004\201\035(8\220+\030<\341\270\013\204\0356 \214\200\000\372A0\342a\270!\300\310`\226!\213\202\201\n \321\374\300\032\250\000\nM\024,\022\016d\330\200\020\002\002\350\007A\260\207~\020\210{\030n\020<2\230e\320\242`\240\342\0306\034\2210\320\007\b\350\001\301\r\004\n\002\241\007\2048 \206\r\210@\b\200\341\006\002\016\300`\226\001\332\002\000a \000\000\270\000\000\000\023\004[,\020\000\000\000\004\000\000\000t\250\201r(\201\212(\2172(8\000\000\000\000\231\0342\227C\236\020\304pC\260\220\301,\203\020\004\303\r\314!\006\263\f\021\024\364\200\3604= <\316p\303\243\210\301,\2031\004\263\004E\017\020\364\377\377\377?\000\354\377\377\377?\034=@\314\377\377\377\377\000\264\377\377\377\377p\214@\314\377\377\377\377p@\n\222A\020\002= \020\301p\303`\006`0\313\360\024\301@\005\000\007\003A\fT\000\324\340\020\003\025\00058\304,\201\223\314!/\300\024\331 \b\201\036\020\236`\270ap\0030\230e8\220\240\007\004h\270\257\210\0138\315\341\220\027\200\201\0167\004t\000\006W\007D\364\200\220\004\263\f\2112\fT\000\005\"\007\306@\005P r`\364\200 \234A\017\b\002\032P\020\b\303\006\304\020\004\300p\3033\220\301,\003r\004\303\rH\037\240\301,CC\004\270\234\301\r\\\243\006\232\001@)8\320\341\206F\024\320`\226a!\002\034\205\"\004.`\003\235%`\006*\0008X\"f\240\002`\226\202\031\2508\230\245`\372A\020\354\200\202\003\271\301\270\023\032\274@\330~\020\220=\0306 \002\201\000\206\033\260\200\ff\031\030\"\030\250\000\212\206\024\222\201\n\240hD!\351\007A\370\203~\020\004P\240\340@\206\r\210! \200\341\006o \203Y\206\206\b\006*\200\302\321\205b\240\002(\034](z@\020J\241\007\004\301\024(\b\204a\003b\b\002`\270a\016\0062\230ep\236`Ya\240\342\230\005\214&\202\201\n\340\0250\234\b\006*\200U\300x\"\030n\030|\001\ff\031\036-\270_(\205\270\240\025t\270!\b\0070\230e\220\246\240\007\204Y\020z@\230\205\341f\201\210\013`As8\344\005\264\240\303\r\001:\200A\017\b\0071\313@U\302@\3051L\264\021ap\0130\320\003\002/\b\024\004B\017\b\277@\f\033\020\201\020\000\303\r\304\003\006\263\f\322\024\f7,\360`\006\263\f\031\026\240\242\0137pL/h\006\000\245\340@\207\033\240z0\203Y\006\013\013\320\036\212\020\270\340\027t\226\340\032\2508\020+\271\006*\000\306*\256\201\n\000\016\254\346\352\007A8\007\n\016\344\n\006O8\356\002a\207\r\b# \200~\020\fv\030n\b02\230e\270\260\240\007\0040\350z@\000\003\357\300 \036t\226\000\032\250\000\222\214\024\250\201\n\240\310P\201\"\341@\206\r\b! \200~\020\004z\350\007\201\250\207\341\006!\f\310`\226!\303\202\201\212c\320l\004\302\000\037 \240\007\2048\020(\b\204\036\020\344\200\0306 \002!\000\206\033\210:\000\203Y\206G\013\000\000a \000\0002\000\000\000\023\004D,\020\000\000\000\002\000\000\000t(\310\200\002\f\000\000\3610\000\000\005\000\000\000+\204\312X1X\325\261b\270*d\203pY\033\202\013\000\0003\021\240\260\260\002)\f7\030\002\031\3142\bA0b`\230\001\b\202\301\036p\2040b@\234A\b\202\201\033\274\301\210\001\202\006 \b\006\337\034\f\301a\214\030\034i\000\202`\360\006o0$\310\210\201a\006 \b\006{\320\031\304,\3010b\200\250A\b\202A\033\310\201\222 \307,\3010P\301\006\202@\004\243\t\0010\232 \004\303\rB\007\006= <\302tC\025\b\033\004\304\000\000\005\000\000\000[\206\001\271\266\f\004rm\031\n\004\3332\034\310\005\000\000\000\000\000\000\000a \000\000v\002\000\000\023\004\262\020\013\004\000\000\005\000\000\000\024(?:\224@\r\024\\\001\006T\301\f\000\261f\000\000\000\3610\000\000v\000\000\000\"G\310\220Q\036\214\272\000\000\000\000kp\007wP\007\241\020\n\016\000\000_ZN6memchr6memmem5rfind17h8f392d59fd4b2322E_ZN6memchr6memmem5rfind17h8f392d59fd4b2322E: argument 0_ZN6memchr6memmem5rfind17h8f392d59fd4b2322E: argument 1_ZN6memchr6memmem9FinderRev5rfind17h1302e9162a59c1a8E_ZN6memchr6memmem9FinderRev5rfind17h1302e9162a59c1a8E: argument 0_ZN6memchr6memmem9FinderRev5rfind17h1302e9162a59c1a8E: argument 1branch_weights\000\000\023\204\343\024&\b\007*L\020\026V\230 ,\255\260B\000\203j\305\020\006``\255\030\304\000\f\256\025\302\030`+\0062\030\203l\305P\006c\240m\b\302`\203\020\006b\260! \203\rA\031l\020\"n\303P\006a \006\033\200\rB\324m\0306\357\3330l\237\267A(\2030\330 \220\201\030\0003\021\241\260\260\002)\214\030\024@\b\202\201\037x}0\334\300\024d0\313\000\013A0b`\230\001\b\202\301\036\210\301!\214\030\020g\020\202`\340\006u0bp\254\001\b\202\301\205\007C\303\214\030\024@\b\202\201\037\200A\037\214\030\024@\b\202\201\037\200\001\037\214\030\024l\000\202`\000\007s0\214\036\004\301hB\000\214&\b\301pC \211\301,\303+\bA_\r\310\030t}E$d\340y\024\034\b\006\016\b\214\030\030\000\b\202\001\037\250AP\006\303$G0\230\302+\350\202+\240\002\301#\006H\033\200 \030\304\001\037d\030r\3142\030E@\305\201\f7\004j\000\006}E@kP\006f@\301\201\220r }ULn\200\006f\240Qp \243\007A0\334\000\305\001\030\234\340\301,\303\201$}5`s\340\006#\006\211\033\200 \030\310\301)\004e@\006\3244\232\020\000\243\tB0K\360\n#\006\006\000\202`\300\007x`\035\263\004w0\313 \007\3111\334\200\\d0\313\240h\301%d\000\303\rAF\006\303\r\313\036\200\301,\3012Pq\254B\206\013\312\005\\\f7\004n@\006\263\f\214\034\004]8\300\301\037\b\024\004\302\005n\240\031\034\002\337 \270\200\013.\035n\bJ\001\ff\031\262&\230ep\"f\240\342( 6h\206\033\202S\000\203Y\006\351\tN\230\003\270\200\201\341\206@\017\310`\226\001\242\203\240\013\2075X\205\201\202@\350\302\301\017Z\201\240 \020\206\033\206\000\ff\031\234)\230e\220\346\240\"8\b\204\341\206 \002\203Y\006j\n\006*\016\262\2200\350\302 \210Y\202k\240\342\2700T\220.\300`\270!0\0052\230e\250\354 \350\302\341\016na\240 \020\272pP\205\\ (\b\204\341\206!\000\203Y\006\314\n\206\033\220=\000\203Y\206W\270\202\201\212\203\232\304\301:1\bb\226 \273e\025`\270!\370\0030\230ex\005*\030\2508\214\013\025\230\341\206 \024\310`\226\341\025\226`\270a\016D\001\f\216\016^\001\206\033\002R \203Y\206\255\f\202\201\212c\003\003\266\320.0\205\030n\bp\201\ff\03189\b\272p\320\205t\020(\b\204\013pA38\004\346Bp\001\027\204\202\0167\004\357\000\006\263\f`\020\006\301\371\301\376\377\377\377\0171K\360\3152\274\302\347\fT\034B\247\022\3361A\314\022\200\301@\305!|\0307\334\020\314\002\031\3142\274\302\026\fT\034\305\030\250\0047\334\020\330\003\030\3142\220\201\030\004'\210\003\\\020\301pC\220\016d0\3130\006t\020t\341\240\013\3720P\020\b]8\264\003?\020\024\004\302p\303\020\200\301,C\030t\001\375B \f7\004\026\030\3142x]0\334\020\013!\001\006\263\ff\000\007\301,\303\031\260\3017Pq\\j@\036fp\2018\304pC@\017d0\313\200\006r\020t\341`\017%!P\020\b\027\320\203fp\b\254\207\340\002.\350\005\035n\bV\002\ff\031\324`\r\202S\356\001f\t\324`\240\342\020\322\200B\203\341\206\240\035\310`\226\341\025\316 \240w\b\204\341\206@\001\203Y\206WH\203`\240\342\250\334@D\314\340\202x\210\341\206`$\310`\226\241\r\344 \350\302\241$hB\240 \020.\030\t\315\340\020H\022\301\005\\\300\016:\334\020\350\004\030\3142\270\301\033\004\003\025\307\362\006R\033\f7\004\373@\006\263\f\257\300\006\001\365C \f7\004\t\030L7\314\303J\004\367\0041K\340\006\003\025\307P\007bR\006\027\204D\f7\0043A\006\263\fq \007A\027\0165A\026\002\005\201p\301Lh\006\207@\232\b.\340\002~\320\341\206@-\300`\226\241\016\346 \030\2509\354\004\341\215\005%6X8\0039`\003\t\016F\f\2167\000A0\230\003\277\bx\">x\240\3420\217\b&\342`\304\340x\003\020\004\2039\370\213\200%\344\203\007*\016\324x\324A\fF\f\2167\000A0\230\003\320\b|b>x\270\201i\t2\230ex\0058\bF\f\2167\000A0\230\203\320\320\205\237\240\017\036\2508\374\3448\205S\030\2508|\344\030\205S8\001&b\270!\020\0132\230e\300\203<\b\272p \213\271\020(\b\204\013\304B38\004\216Ep\001\027\254\204\0167\004y\001\006\263\f\247\240\007\301\210\301\361\006 \b\006s\300\032\211Z\374\007\217\030\030\000\b\202\001\037\364\205J(\243\007Ap\301Y\300pC\300\023d0\313\260\007~\020\fT\034E\037\030z0\334\020\374\005\030\3142\204\002\037\004'\254\005\\\000\301pC \027d0\313\320\007\240\020t\3410\026\2431P\020\b]8\330Ei\020\024\004\302p\303\020\200\301,\303\036\224B0\334\320\240\006\030\3142\204\302\037\004#\006\307\033\200 \030\314\301n4h\341\"<bp\274\001\b\202\301\034\354\006\222\027.\302\263\f\2420\n81bp\274\001\b\202\301\034\354Fj\244\206\2130\245E \f7\004\026\030\3142\220B)\004\303\r;\261\221\301,\003*\274B0Pq\340\314(p}p;\021\304,\201)\fT\034\272R\n\244\262\n\003\025\007Q\n\246\262\n\027\006A\314\022\234\302@\305a\230\002\270\340\301@\305A\230\202(\340\301pC \027d0\313\360\nw\020\fT\034S+\240\n)\f7\004>\001\006\263\f\252\220\n\301\te\000\303\r\301i\220\301,\303*\260B0bp\274\001\b\202\301\034\250GX\334E\217p\027\016x\201\033\004\005\201\320\205\303j\350\006AA \f7\f\001\030\3142\264\202)\004#\006\307\033\200 \030\314\301{\034\255!&|Ij\300pC\340\006`0\313\360\n\250\020\020_\004\310\210\301Q\006 \b\006t\020\037Al\300\306hB\000\214&\b\301,\301+\f\024\006\207\256\030\202+\320L`6\0029\264\0029\220\0029\234\002\253`\254b\261J\206\037\036~\200\001h\250\001h\254\201X\270\201H\324\301@ap\370\212a\270\002\352\004`#\200M+\200\r)\240\316)\200\r\0066\026\352d`\343\241\016\030\240\216\032\200\315\032\240\216\033\240N\035\3146\254F\000\3146\004C0b`\230\001\b\202\301\036\254Gl\260\306,A,\214\030 j\020\202`\320\006\375\201\033\267a\033\2651K\020\013\003\025l \300\002\361\n\243\t\0010\232 \004\303\r\302z\200A\017\b\275!L7\214G l\020\020\003\000?\000\000\000[\006\0021\203-C\202\240\301\226$\"\322\3408\003D\r\2725\330\222`\004\033\034g\200\250A\267\006[\212\3558\003D\r\266\024\334q\006\210\032l)\274\343\f\0205\3302\250\201\320\006[\006:\020\334`Ka\007\307\033 p\260e\350\003\301\r\266\f\244 \270\301\226\002\025\2167@\340`\313P\013\202\033l)r\341x\003\004\016\266\f\352 \270\301\226\301\035\0047\330R\300\303\361\006\b\034l\031LBp\203-\205J\034o\200\300\301\226\301&\0047\330R\340\304\361\006\b\034l\031\324Bp\203-\005[\034o\200\300\301\226\301/\0047\330R\200\306\361\006\b\034l\031pCp\203-\205n\034o\200\300\301\226\341<\0047\3302\270\207\340\006[\n\3718\336\000\201\203-\303~\bm\260e\200\021\241\r\266\f3\"\270\301\226\"G\2167@\340`K\021&\307\031 j\260eP\023\304\f\000\000\000\000\000\000a \000\000\025\000\000\000\023\004D,\020\000\000\000\002\000\000\000\024\030\001\240C\t\000\0009\004\200\212@\030n\b\b0\230e\030\202`\240\"H\004\002\030\250\000\n\001\002\206\033\204\002\ff\031\006!\350\001A8(\b\204\341\206@\001\203Y\206!\b\006:\0002\000\224\200\f\204\r\000\000\000a \000\000\026\000\000\000\023\004C,\020\000\000\000\002\000\000\000\024\030\001\240C\t\000\0009\004\200\212@\030n\b\b0\230e\b\204`\240\002\300\200E\330`\240\"h\004\003\030\250\000\022A\002\006*\200B\360\200\341\206\341\000\203\351\206A\bz@ \024\n\002a\270!h\300`\226!\020\002\000\000\000\000a \000\000\r\000\000\000\023\004C,\020\000\000\000\002\000\000\000\024\030\001\240C\t\000\000\263\004\301@\305A\006@\022\364\200@\004\024\004\302pCP\200\301\021\005\3142\b\201\260\005\000\000\000a \000\000\023\000\000\000\023\004D,\020\000\000\000\002\000\000\000\024\030\001\240C\t\000\000\303\r\303\004\006\263\fB\020\fT\034\313\200\006@\017\bF@A \f7\004\006\030\3142\bC0\320q\300\001\000\rH\260\001\026\007\004\f7\004\n\030\3142\bA\000\000\000a \000\000\026\000\000\000\023\004D,\020\000\000\000\003\000\000\000\024\030\001\240C\t\220g\004\000\000\000\303\r\205\022\006\303\rE\025\006\323\r\301 \3142\bA0\320q\270\0010\b\316\260\301@\305\221\fp\000\364\200\240\004\024\004\302pC\240\200\301,C0\004H(\0200\334\0204`0\313\020\b\001\000a \000\000\034\000\000\000\023\004E,\020\000\000\000\002\000\000\000\024\030\001\240C\t\000\000D\004\302pC0\200\301,\003\021\004\003\025\3015\020\300@\005\020\r\0160P\001D\203\003P\020\b\303\r\001\002\006\263\f\204\020d\261\210\034\026\201B\020\002\303\rA\005\006\263\f\003\021\364\200\2000=  \r\t\2010\334\020@`0\313@\004\301@\311B\007\000\035\f\214@\007\301\006\000a \000\000\032\000\000\000\023\004D,\020\000\000\000\003\000\000\000\024\030\001\240C\t\220\247\006\000\000\000\263\004\301@\305\241\006@!\f7\004\005\030\3142\fBp\002\001= $\003\005\201\320\003\202RP\020\b9,\"\205E\240\020\204\300pCp\205\301p\303\341\200\301tC\023\b\303\r\007\004\006\323\rO \3142\fA0P\261\340A\300\b\033\000\000a \000\000L\000\000\000\023\004F,\020\000\000\000\005\000\000\000\024\030\001(\001:\224@\001\025C\371\221g\004\000\000\000\000\000\3610\000\000\b\000\000\000+\204*Y1X\225\262B\270\226\025\003v1+\204\254Y1h\231\263!\2606\004\330\206@\003\0003\021\244\260\260\002)\214\030\030f\000\202`\260\007^\021\214\030 p\000\202`\200\007c\020 \205@I \f7\004\t\030\3142\004B@L \f7\004\n\032\3142\024C0P\021T\002\002\fT\000\221\300\001)\034\344\202\005OX\024\237\340\002\372AX\006\n\016\344\202a\207\r\210! \200\036\020\220\211\202@\030n\b.0\230e\b\204`\240\"\270\b.\030\250\000&\302\016\202\024\016q\301\205\375 T\301\r\230\"\027\\\000\r\007r\201\240\303\r\301\000\006\263\fD\021\364\200\220\200\001\005\2010\334\020\214\001\032\3142\024C0\320\001\270B\200\r\006\221\301!3\r\016yB\020#\006\206\031\200 \030\354\201\037\230\201\030l\020\020\003\000\000\000\005\000\000\000[\006\341\320\266\f\320\261m\031\244c\3332x\007\007\000\000\000\000\000\000\000a \000\000M\000\000\000\023\004G,\020\000\000\000\004\000\000\000\024\030\001\240C\t\024P1\224\037yF\000\000\000\3610\000\000\b\000\000\000+\204*Y1X\225\262B\270\226\025\003v1+\204\254Y1h\231\263!\2606\004\330\206@\003\0003\021\244\260\260\002)\214\030\030f\000\202`\260\007]\021\214\030 p\000\202`\200\007b\020\034\205@H \f7\004\b\030\3142\004B@K \f7\004\n\030\3142\030C0P\021T\002\002\fT\000\221\240\001)\034\344\202\005OX\024\237\340\002\372AX\006\n\016\344\202a\207\r\210! \200\036\020\220\211\202@\030n\b,0\230e\b\204`\240\"\310\n.\030\250\000\252\202\016\202\341\006!C\203Y\206\202\br8\304\005\030\366\203`\0057d\212]p\0014\034\310\005\202\0167\004\003\030\3142\030E\320\003\202\022\006\024\004\302pC@\006`0\313`\f\301@\007\340\n\201F\030E\006\207\31448\344\tA\214\030\030f\000\202`\260\007~p\006c\260A@\f\000\000\005\000\000\000[\006\341\320\266\f\320\261m\031\244c\3332\200\301\301\001\000\000\000\000\000\000a \000\000Q\000\000\000\023\004G,\020\000\000\000\004\000\000\000\024\030\001\240C\t\024P1\224\037yF\000\000\000\3610\000\000\b\000\000\000+\204*Y1X\225\262B\270\226\025\003v1+\204\254Y1h\231\263!\2606\004\330\206@\003\0003\021\244\260\260\002)\214\030\030f\000\202`\260\007]\021\214\030 p\000\202`\200\007b\020\034\205@H \f7\004\b\030\3142\004B@K \f7\004\n\030\3142\030C0P\021T\002\002\fT\000\221\240\001)\034\344\202\005OX\024\237\340\002\372AX\006\n\016\344\206`\207\r\210! \200\036\020\220\211\202@\030n\b,0\230e\b\204`\240\"\310\n.\030\250\000\252\202\016\202\341\006!C\203Y\206\202\br8\304\005\030\366\203`\0057d\212]p\0014\034\310\005\202\0167\004\003\030\3142\030E\320\003\202\022\006\024\004\302pC@\006`0\313`\f\301@\007\340\n\201QhD\006\207\31448\344\tA\214\030\030f\000\202`\260\007~p\006c\320\003\302\032\004\024\004\302pC\260\006`0\3350\007C\260A@\f\005\000\000\000[\006\341\320\266\f\320\261m\031\244c\3332\200\301\301\001\000\000\000\000\000\000a \000\000\017\000\000\000\023\004C,\020\000\000\000\002\000\000\000\024\030\001\240C\t\000\000\263\004\301@\305a\006\300\022\364\200@\004\024\004B\017\b\3070l@\004B\000\f7\b\006\030\\a\300,\203\020\b\253\000\000a \000\000W\000\000\000\023\004K,\020\000\000\000\004\000\000\000\024\030\001\240C\t\224CyT\004yF\000\000\000\3610\000\000\n\000\000\000+\204JX1X\325\260B\270\210\025\003v\025+\204LX1h\331\260B\330\210\025\003\267\025\033\004\314\332 p\032\000\000\000\204\004\302pCp\204\301pC\242\205\301tC@\b\263\fJ\020\fT\034x\000\364\201\322\003\202\023\\#\304pC\240\210\301,\003!\004\003\025\307\031\034D0P\001\204\301\201\004= \004\302p\3030\006`0\313\220\f\301@\0050\f\206\320\003B \r\033\020\002\025\000\303\r\001\001\006\263\f\311\020\244r\310C\203 .\250\264\007\204&\030n\020\326\000\ff\031\214\"\030\250\000\206\302#z@\b\264a\003B\340\002`\270! \300`\226\301(\202\213\214\270@\323\036\020\216`\270A\220\0033\230e@\216\340\210Og\t\204\201\n`@(c\330\200\b\352\200\000\372A\b\304`\270!(\310`\226\0019\202E\203\201\212`Q\374\000\030\2508\n\005\036\200\036\020\324 \0306 \202!\000P8\003\b\350\001a\r\002\n\002a\270!X\2030\030n \332\200\f\246\033\0024\020f\031\224 \b\210\001\003\000\000\000[\206\350\340\266\f\334\321\001\000\000\000\000\000\000\000a \000\000\020\000\000\000\023\004C,\020\000\000\000\002\000\000\000\024\030\001\240C\t\000\000\263\004\301@\305a\006\300\022\364\200@\004\024\004B\017\b\3070l@\004B\000\f7\b\006\030\\a\300,\203\020\b= (\306\006\000\000a \000\000F\000\000\000\023\004I,\020\000\000\000\003\000\000\000\024\030\001\240C\t\024d@\001\006\000\3610\000\000\005\000\000\000+\204\312X1X\325\261b\270*d\203pY\033\202\013\000\0003\021\240\260\260\002)\220\021\b\303\r\201\001\006\263\fH\020\fT\034I\000\007@\017\bJ@A \f7\004\n\030\034\241\300,\203\020\b\263\004\303@\305\221\fz \364\200\340\004\024\004\302pC\360\200\301\021\017\3142\020\2030\334\2408d0\313`\024\301\210\201a\006 \b\006{\200\006\2203b@\234A\b\202\201\033\354\301\210\001\202\006 \b\006\337\037<\001u\214\030\034i\000\202`\360\006{\360T\314\210\201a\006 \b\006{\220\006\0224Kp\214\030 j\020\202`\320\006~`5\0252Kp\fT\260\201`\020\305hB\000\214&\b\301p\203\220\006`\320\003\302&L7\204A \314\022 \003\025\200p\350\001\260A@\f\000\005\000\000\000[\206\t\271\266\f\024rm\031*\004\3332\\\310\005\000\000\000\000\000\000\000a \000\000:\000\000\000\023\004I,\020\000\000\000\003\000\000\000t(\201r\250\210\032 \317\b\000\000\303\r\006!\006\231\0342\223C^ \354\005\210\0167\004\\\030L7\004\2071\3130\004\301@\305\241\001\0371P\001x\300F\fT\000b\000\\\304p\303\020\006`0\313\200\b\301@\005@\004\3110P\001 A2\fT\034L0\f\263\004\305@\305\021\021h\000\fT\000\013\341\006\300@\005\260\020n\000\220p $\034\310p\203\020\200\301,\003!\004\375 \024Y?\b\205vH\006\303\r\301&\006\263\fC\020\fT\000\215\241\t\003\025@ch\302@\305\321\030\232@C \320\020\b\303\rB\000\006\263\f\306\021\364\200`\214A\017\b\006\031\234!\0060\334\020\340\001\030\3142 E\220\307\"\362X\004\nA\b\314\022 \003\035\213p\240C\200\016\306\006\000\000a \000\000\004\000\000\000\023\004\301\210\301\021\007!\b\006\016+\bC\240\000a \000\000?\000\000\000\023\004I,\020\000\000\000\003\000\000\000\024\030\001\240C\t\224CyT\004\000\3610\000\000\n\000\000\000+\204JX1X\325\260B\270\210\025\003v\025+\204LX1h\331\260B\330\210\025\003\267\025\033\004\314\332 p\032\000\000\000\303\r\206 \006\263\fC\020\fT\034g`8\300@\005\020\006\206\004\364\200\020\b\303\r\203\006\006\263\f\210\020\fT\000\203`\004= \004\312\260\001!0\0010\334\020\020`0\313\200\bA>\207\274/\210\013\032\355\001A\n\206\033\0041\000\203Y\206\202\b\006*\200\201@\203\241\007\204@\0326 \004*\000\206\033\002\002\ff\031\n\"8\313\210\013$\355\001\341\b\206\033\20440\203Y\206\303\b\216\270t\226 \030\250\000\206\203*\206\r\210\200\r\b\240\037\204@\033n\b\n2\230e8\214@\003b\000\000\003\000\000\000[\206\344\340\266\f\324\321\001\000\000\000\000\000\000\000a \000\000\025\000\000\000\023\004D,\020\000\000\000\002\000\000\000\024\030\001\240C\t\000\0009\004\200\212@\030n\b\b0\230e\030\202`\240\"H\004\002\030\250\000\n\001\002\206\033\204\002\ff\031\006!\350\001A8(\b\204\341\206@\001\203Y\206!\b\006:\0002\000\310@P\202\r\000\000\000a \000\000\026\000\000\000\023\004C,\020\000\000\000\002\000\000\000\024\030\001\240C\t\000\0009\004\200\212@\030n\b\b0\230e\020\202`\240\"h\002\002\030\250\000\222\000\002\006*\200\"\340\200\341\206\301\000\203\351\206A\bz@ \022\n\002a\270!`\300`\226A\b\202\201\n\000\r\000$\330\000\000\000\000a \000\000\024\000\000\000\023\004A,\020\000\000\000\001\000\000\000\344\251\001\000\3610\000\000\003\000\000\000\023\204\305\025&\b\313+l\020*\013\303\rB\002\006#\006\006\020\202`\220\007\332 `\320\300\300t\003\023\f\033\004\304\000\000\002\000\000\000[\206\200\260\000\000\000\000\000\000\000\000a \000\000\020\000\000\000\023\004A,\020\000\000\000\001\000\000\000\344\251\001\000\303\rB\004\006#\006\006\020\202`\240\007\331 d\260\000\f\034\030\230nh\002b\203\200\030\000\000\000\002\000\000\000[\206\200\230\000\000\000\000\000\000\000\000a \000\000\020\000\000\000\023\004A,\020\000\000\000\001\000\000\000\344\251\001\000\303\rB\004\006#\006\006\020\202`\240\007\331 d\260\000\f\034\030\230nh\002b\203\200\030\000\000\000\002\000\000\000[\206\200\230\000\000\000\000\000\000\000\000a \000\000/\000\000\000\023\004C,\020\000\000\000\004\000\000\000\024\030\001\250\301\200\242) :\224\000\000\000\000\000t\004\302\005\005\f7\004\005\031L7\024Hp\001\261\264\004\302\005\n\f7\004\n\031L7(Mp\001\261\303\rF\020\006\303\r\007\004\006\027\b;\334@H`p\201\260\263\fB\020\fT\000E\300\006\300@\005P\004l\000\364\200 H= \b\023\t\201p\001\006\303\r\001F\006\323\r\330\026\\@,\031\201pA\007\303\rAG\006\323\r\035\030\004\027\020;\334`\004a0\334p\214\001\030\\ \354p\003Q\006`p\201\260\263\fB\020\fT\004|\000X\301@E@\007\200\023\234\020D\006\013\331\000\000a \000\000'\000\000\000\023\004E,\020\000\000\000\004\000\000\000\024\030\001\250\301\200\242) :\224\000\000\000\000\000\303\r\306\005\006\263\fD\020\fT\000g H\300@\005p\006\202\004\fT\034a \320\001@C \\\220\300pC\220\220\301tC\302\004\027\020KG \\\340\300pC\340\220\301t\203\023\005\027\020;\334`\004a0\334pP`p\201\260\303\r\204\005\006\027\b;\3130\b\001B\024\004\364\2000U= L\326p\303\300\201\301,\003\021\004\367(\221\301Bf\t\210\201\216E\030`\001\200\005a\003\000\000a \000\000\030\000\000\000\023\004E,\020\000\000\000\003\000\000\000t(\221\022\004\"\317\b\000\000\000\000\303\r\304@\006\303\rF1\006\323\r\301 \3142\fA0\334p `0\334\200\030dpB\240\263\f\203\020\214\030\030q\020\202`\260\235\301\242\314\022\020#\006E\034\204 \030\324A\0320\263\004\304@\005 \f\204\260\001\000\000a \000\000\004\000\000\000\023\004\301\210A\021\007!\b\006\t6(\000\000\000a \000\000\031\000\000\000\023\004E,\020\000\000\000\003\000\000\000t(\221\022\004\"\317\b\000\000\000\000\303\r\305@\006\303\r\2051\006\323\r\301 \3142\fA0\334\200\034`0\334\220\030dp\201\240\263\f\203\020\214\030\034q\020\202`p\007g\320(\313,\0011b`\304A\b\202\201\035\244\201\263\314\022\020\003\025\2000\020\302\006\000\000\000\000a \000\000\030\000\000\000\023\004E,\020\000\000\000\003\000\000\000t(\221\022\004\"\317\b\000\000\000\000\303\r\304@\006\303\rF1\006\323\r\301 \3142\fA0\334p `0\334\200\030dpB\240\263\f\203\020\214\030\030q\020\202`\260\245\301\242\314\022\020#\006E\034\204 \030\324\301\0320\263\004\304@\005 \f\204\260\001\000\000\241 \000\000d\000\000\000\243\004\311P\001 \252\000!2\204\210\020!B\304\b\211\032@\210\f!\"D\210\0201BR\016\020\"c\204\304\274 D\206\210\021\022\362\200\020\031BRZ\020\"d\204J\000\020h\f\000\000j\000\020h\f\000\000\212\000\bh\f\000\000\252\000h@\214\000\020\bz\312\000h@\214\000\020\bj\352\000xq\f\000\000\n\001hA\f\000\000*\001HB\214\000\b\bJ\001x`\f\000\000j\001\350\f@\214\000\020\bz\212\001\330\f@\214\000\b\b\252\001\220@\214\000(\b\\V^Z\312\001\250\025@\f\001P\b\002\\Xbdfhj`\352\001pp\f\000\000\n\002xp\f\000\000*\002@p\f\000\000J\002`p\f\000\000j\002pp\f\000\000\212\002\250p\f\000\000\252\002\240@\214\000\b\b\312\002`A\f\000\000\352\002pA\f\000\000\n\003\220Q\f\000\000*\003P`\f\000\000J\003\270a\f\000\000j\003X`\f\000\000\212\003 A\214\000(\b\\V^Z\252\003xq\f\000\000\312\003\020@\f\000\b\030\352\003 a\f\000\000\n\004pp\f\000\000*\004xp\f\000\000J\004(H\f\000\000j\0040H\f\000\000\212\0040H\f\000\000\252\004Hq\f\000\000\312\004\370@\214\000\b\b\352\004p@\f\000\020rp\n\005\020@\f\000\b\200*\005p@\f\000\020vtJ\005p@\f\000\020nl\f\000\025\202\002\013@\005\241\000`\260`O\000\000\000\000q \000\000&\000\000\0002\016\020\"\204\002\310\0138\320\274\200\004\322\013XP\275\200\006\347\013x\220\277\200\b\265\f\230\360\317\200\n\326\r\270\300\336\200\f\252\017\330@\016\201\016\230\021\370\000i\201\020\247\026\030\361k\201\022\316\02681n\201\024\373\026X\221y\201\026\265\027x1\210\201\030\322\030\230Q\232\201\032\266\031\270\361\250\201\034\241\032\330\221\256\201\036\245\033\370\261\272\201 \354\033\0302\310\201\"\233\0348\022\313\201$\303\034XR\315\201&\206\035x\362\332\201(\311\035\230\362\334\201*\352\035\000\000\000\000\213\2128\026g\271\037V\261\224\3456\240K{\304\2314\376\351X\rn\221\334\371]\000e\f\000\000\275\001\000\000\022\003\224\350\035\000\000\000\003\000\000\000\373\004\000\000\032\000\000\000L\000\000\000\001\000\000\000X\000\000\000\000\000\000\000X\000\000\000F\000\000\000\350\006\000\000\000\000\000\000\025\005\000\000\030\000\000\000-\005\000\000\026\000\000\000'\000\000\000\000\000\000\000\350\006\000\000\000\000\000\000\000\000\000\000F\000\000\000\000\000\000\000C\005\000\000\t\000\000\000N\000\000\000\b\000\000\000\377\377\377\377\0004\000\000L\005\000\000\022\000\000\000V\000\000\000\021\000\000\000\377\377\377\377\0004\000\000^\005\000\000\024\000\000\000g\000\000\000\023\000\000\000\377\377\377\377\0004\000\000r\005\000\000\007\000\000\000z\000\000\000\006\000\000\000\377\377\377\377\0004\000\000y\005\000\000\b\000\000\000\200\000\000\000\007\000\000\000\377\377\377\377\0004\000\000\201\005\000\000\007\000\000\000\207\000\000\000\006\000\000\000\377\377\377\377\0004\000\000\210\005\000\000\007\000\000\000\215\000\000\000\006\000\000\000\377\377\377\377\2004\000\000\217\005\000\000\007\000\000\000\223\000\000\000\006\000\000\000\377\377\377\377\2004\000\000\226\005\000\000\b\000\000\000\231\000\000\000\007\000\000\000\377\377\377\377\0004\000\000\236\005\000\000\t\000\000\000\240\000\000\000\b\000\000\000\377\377\377\377\0004\000\000\247\005\000\000\b\000\000\000\250\000\000\000\007\000\000\000\377\377\377\377\2004\000\000\257\005\000\000\007\000\000\000\257\000\000\000\006\000\000\000\377\377\377\377\0004\000\000\266\005\000\000\b\000\000\000\265\000\000\000\007\000\000\000\377\377\377\377\0004\000\000\276\005\000\000\007\000\000\000\274\000\000\000\006\000\000\000\377\377\377\377\0004\000\000\305\005\000\000\b\000\000\000\302\000\000\000\007\000\000\000\377\377\377\377\0004\000\000\315\005\000\000\007\000\000\000\311\000\000\000\006\000\000\000\377\377\377\377\0004\000\000\324\005\000\000\b\000\000\000\317\000\000\000\007\000\000\000\377\377\377\377\0004\000\000\334\005\000\000\n\000\000\000\326\000\000\000\t\000\000\000\377\377\377\377\0004\000\000\346\005\000\000\007\000\000\000\337\000\000\000\006\000\000\000\377\377\377\377\0004\000\000\355\005\000\000\b\000\000\000\345\000\000\000\007\000\000\000\377\377\377\377\0004\000\000\365\005\000\000\007\000\000\000\354\000\000\000\006\000\000\000\377\377\377\377\0004\000\000\374\005\000\000\b\000\000\000\362\000\000\000\007\000\000\000\377\377\377\377\0004\000\000\004\006\000\000\b\000\000\000\371\000\000\000\007\000\000\000\377\377\377\377\0004\000\000\f\006\000\000\007\000\000\000\000\001\000\000\006\000\000\000\377\377\377\377\0004\000\000\023\006\000\000\b\000\000\000\006\001\000\000\007\000\000\000\377\377\377\377\0004\000\000\033\006\000\000\007\000\000\000\r\001\000\000\006\000\000\000\377\377\377\377\0004\000\000\"\006\000\000\007\000\000\000\023\001\000\000\006\000\000\000\377\377\377\377\0004\000\000)\006\000\000\005\000\000\000\031\001\000\000\004\000\000\000\377\377\377\377\0004\000\000.\006\000\000\006\000\000\000\035\001\000\000\005\000\000\000\377\377\377\377\0004\000\0004\006\000\000\006\000\000\000\"\001\000\000\005\000\000\000\377\377\377\377\0004\000\000:\006\000\000\006\000\000\000'\001\000\000\005\000\000\000\377\377\377\377\0004\000\000@\006\000\000\007\000\000\000,\001\000\000\006\000\000\000\377\377\377\377\0004\000\000G\006\000\000\004\000\000\0002\001\000\000\003\000\000\000\377\377\377\377\0004\000\000K\006\000\000\005\000\000\0005\001\000\000\004\000\000\000\377\377\377\377\0004\000\000P\006\000\000\006\000\000\0009\001\000\000\005\000\000\000\377\377\377\377\0004\000\000V\006\000\000\013\000\000\000>\001\000\000\n\000\000\000\377\377\377\377\0004\000\000a\006\000\000\f\000\000\000H\001\000\000\013\000\000\000\377\377\377\377\0004\000\000m\006\000\000\013\000\000\000S\001\000\000\n\000\000\000\377\377\377\377\0004\000\000x\006\000\000\r\000\000\000]\001\000\000\f\000\000\000\377\377\377\377\0004\000\000\205\006\000\000\r\000\000\000i\001\000\000\f\000\000\000\377\377\377\377\0004\000\000\222\006\000\000\022\000\000\000u\001\000\000\021\000\000\000\377\377\377\377\0004\000\000\244\006\000\0003\000\000\000\206\001\000\0002\000\000\000\377\377\377\377\b4\000\000\327\006\000\0007\000\000\000\270\001\000\0006\000\000\000\377\377\377\377\b4\000\000\016\007\000\0005\000\000\000\356\001\000\0004\000\000\000\377\377\377\377\b4\000\000C\007\000\0009\000\000\000\"\002\000\0008\000\000\000\377\377\377\377\b4\000\000|\007\000\0002\000\000\000Z\002\000\0001\000\000\000\377\377\377\377\b4\000\000\256\007\000\0006\000\000\000\213\002\000\0005\000\000\000\377\377\377\377\b4\000\000\344\007\000\000:\000\000\000\300\002\000\0009\000\000\000\377\377\377\377\b4\000\000\036\b\000\0008\000\000\000\371\002\000\0007\000\000\000\377\377\377\377\b4\000\000V\b\000\000<\000\000\0000\003\000\000;\000\000\000\377\377\377\377\b4\000\000\222\b\000\000;\000\000\000k\003\000\000:\000\000\000\377\377\377\377\b4\000\000\315\b\000\0007\000\000\000\245\003\000\0006\000\000\000\377\377\377\377\b4\000\000\004\t\000\000\n\000\000\000\333\003\000\000\t\000\000\000\377\377\377\377\b4\000\000\016\t\000\000\022\000\000\000\344\003\000\000\021\000\000\000\377\377\377\377\b4\000\000 \t\000\000\n\000\000\000\365\003\000\000\t\000\000\000\377\377\377\377\b4\000\000*\t\000\000\022\000\000\000\376\003\000\000\021\000\000\000\377\377\377\377\b4\000\000<\t\000\000\013\000\000\000\017\004\000\000\n\000\000\000\377\377\377\377\b4\000\000G\t\000\000\023\000\000\000\031\004\000\000\022\000\000\000\377\377\377\377\b4\000\000Z\t\000\000\023\000\000\000+\004\000\000\022\000\000\000\377\377\377\377\b,\000\000m\t\000\0006\000\000\000=\004\000\0005\000\000\000\377\377\377\377\b4\000\000\243\t\000\000\016\000\000\000r\004\000\000\r\000\000\000\377\377\377\377\b,\000\000\261\t\000\000\016\000\000\000\177\004\000\000\r\000\000\000\377\377\377\377\b,\000\000\277\t\000\000\b\000\000\000\214\004\000\000\007\000\000\000\377\377\377\377\b4\000\000\307\t\000\000\027\000\000\000\223\004\000\000\026\000\000\000\377\377\377\377\b,\000\000\336\t\000\000\025\000\000\000\251\004\000\000\024\000\000\000\377\377\377\377\b,\000\000\363\t\000\000\016\000\000\000\275\004\000\000\r\000\000\000\377\377\377\377\b,\000\000\001\n\000\000%\000\000\000\312\004\000\000$\000\000\000\377\377\377\377\b,\000\000&\n\000\000\016\000\000\000\356\004\000\000\r\000\000\000\377\377\377\377\b,\000\0004\n\000\000)\000\000\000\000\000\000\000'\000\000\000\377\377\377\377\000\030\000\000]\n\000\000)\000\000\000'\000\000\000'\000\000\000\377\377\377\377\000\030\000\000\000\000\000\000]\f\000\000\245\002\000\000\022\003\224&-\000\000\000anon.3ceea9e0fd118baa6e0d11c94f689db4.0anon.3ceea9e0fd118baa6e0d11c94f689db4.1rust_oomrust_begin_unwindrust_eh_personalitymemchrmemrchrmemcmpmemsetmemcpymemccpymemccpy2memmovememmemmemrmemstrchrstrrchrstrlenstrnlenstrnlen_sstrcmpstrncmpstrspnstrcspnstrpbrkstrcpystrncpystpcpystrstrbcmpbcopybzeroindexrindexffsffslffsllstrcasecmpstrncasecmp__rg_alloc__rg_dealloc__rg_realloc__rg_alloc_zeroed_ZN6memchr6memmem8Searcher3new17hb1f276ecc2aad8acE_ZN6memchr6memmem11SearcherRev3new17h4552e010b3cd2b4fE_ZN6memchr6memmem9rabinkarp4find17hb8308d8f6c3e866fE_ZN6memchr6memmem13FinderBuilder3new17h35105699d08ee389E_ZN6memchr6memmem6Finder4find17h3bef4616148b7a58E_ZN6memchr6memmem9rabinkarp5rfind17h97e81bed6ef76eb2E_ZN6memchr6memmem11SearcherRev6needle17hbb98eec6d27af25dE_ZN6memchr6memmem9rabinkarp7is_fast17h417f2c4a45b4e1adE_ZN6memchr6memmem9rabinkarp10rfind_with17hd255431ad592a5b8E_ZN4core9panicking18panic_bounds_check17he28cb42adadba34fE_ZN6memchr6memchr8fallback7memrchr17h973174757ba6665cEmi_zallocmi_zalloc_alignedmi_mallocmi_malloc_alignedmi_reallocmi_realloc_alignedllvm.memset.p0.i64_ZN6memchr6memchr8fallback6memchr17h911f38b67dd3facbEllvm.cttz.i32llvm.cttz.i64mi_freellvm.lifetime.start.p0llvm.lifetime.end.p0llvm.umin.i64llvm.experimental.noalias.scope.declllvm.umax.i6415.0.2-rust-1.66.0-nightlyarm64-apple-macosx11.0.0oxilibc.fee1698f-cgu.0_rust_oom_rust_begin_unwind_rust_eh_personality_memchr_memrchr_memcmp_memset_memcpy_memccpy_memccpy2_memmove_memmem_memrmem_strchr_strrchr_strlen_strnlen_strnlen_s_strcmp_strncmp_strspn_strcspn_strpbrk_strcpy_strncpy_stpcpy_strstr_bcmp_bcopy_bzero_index_rindex_ffs_ffsl_ffsll_strcasecmp_strncasecmp___rg_alloc___rg_dealloc___rg_realloc___rg_alloc_zeroed__ZN6memchr6memmem8Searcher3new17hb1f276ecc2aad8acE__ZN6memchr6memmem11SearcherRev3new17h4552e010b3cd2b4fE__ZN6memchr6memmem9rabinkarp4find17hb8308d8f6c3e866fE__ZN6memchr6memmem13FinderBuilder3new17h35105699d08ee389E__ZN6memchr6memmem6Finder4find17h3bef4616148b7a58E__ZN6memchr6memmem9rabinkarp5rfind17h97e81bed6ef76eb2E__ZN6memchr6memmem11SearcherRev6needle17hbb98eec6d27af25dE__ZN6memchr6memmem9rabinkarp7is_fast17h417f2c4a45b4e1adE__ZN6memchr6memmem9rabinkarp10rfind_with17hd255431ad592a5b8E__ZN4core9panicking18panic_bounds_check17he28cb42adadba34fE__ZN6memchr6memchr8fallback7memrchr17h973174757ba6665cE_mi_zalloc_mi_zalloc_aligned_mi_malloc_mi_malloc_aligned_mi_realloc_mi_realloc_aligned_llvm.memset.p0.i64__ZN6memchr6memchr8fallback6memchr17h911f38b67dd3facbE_llvm.cttz.i32_llvm.cttz.i64_mi_free_llvm.lifetime.start.p0_llvm.lifetime.end.p0_llvm.umin.i64_llvm.experimental.noalias.scope.decl_llvm.umax.i64L_anon.3ceea9e0fd118baa6e0d11c94f689db4.0L_anon.3ceea9e0fd118baa6e0d11c94f689db4.1\000\000\000\000\000"

	.section	__LLVM,__cmdline
l_rustc.embedded.cmdline:
	.byte	0

.subsections_via_symbols
