SF:/Users/grayjack/Documents/Sources/RustProjects/oxilibc/src/lib.rs
FN:85,_RNvXCslEoB1A2LKH6_7oxilibcPhNtB2_15PointersOverlap13overlaps_withB2_
FN:104,_RNCNvNtCslEoB1A2LKH6_7oxilibc5tests19overlaps_with_works0B5_
FN:105,_RNvNtCslEoB1A2LKH6_7oxilibc5testss_19overlaps_with_works
FN:14,__rg_alloc
FN:14,__rg_realloc
FN:1,_RNvCslEoB1A2LKH6_7oxilibc4main
FN:14,__rg_dealloc
FN:14,__rg_alloc_zeroed
FNDA:13,_RNvXCslEoB1A2LKH6_7oxilibcPhNtB2_15PointersOverlap13overlaps_withB2_
FNDA:1,_RNCNvNtCslEoB1A2LKH6_7oxilibc5tests19overlaps_with_works0B5_
FNDA:1,_RNvNtCslEoB1A2LKH6_7oxilibc5testss_19overlaps_with_works
FNDA:885,__rg_alloc
FNDA:63,__rg_realloc
FNDA:1,_RNvCslEoB1A2LKH6_7oxilibc4main
FNDA:885,__rg_dealloc
FNDA:0,__rg_alloc_zeroed
FNF:5
FNH:5
DA:1,1
DA:14,885
DA:85,13
DA:86,13
DA:87,13
DA:88,13
DA:89,13
DA:90,13
DA:104,1
DA:105,1
DA:106,1
DA:107,1
DA:108,1
DA:109,1
DA:110,1
DA:111,1
DA:113,1
DA:114,1
DA:115,1
DA:116,1
DA:118,1
DA:119,1
DA:120,1
DA:121,1
BRF:0
BRH:0
LF:24
LH:24
end_of_record
SF:/Users/grayjack/Documents/Sources/RustProjects/oxilibc/src/string.rs
FN:1591,_RNCNvNtNtCslEoB1A2LKH6_7oxilibc6string5tests12strstr_works0B7_
FN:1396,_RNCNvNtNtCslEoB1A2LKH6_7oxilibc6string5tests13memrmem_works0B7_
FN:1423,_RNCNvNtNtCslEoB1A2LKH6_7oxilibc6string5tests12strchr_works0B7_
FN:1457,_RNvNtNtCslEoB1A2LKH6_7oxilibc6string5testss_13strnlen_works
FN:1467,_RNvNtNtCslEoB1A2LKH6_7oxilibc6string5testss_15strnlen_s_works
FN:1270,_RNvNtNtCslEoB1A2LKH6_7oxilibc6string5testss_13memrchr_works
FN:1532,_RNCNvNtNtCslEoB1A2LKH6_7oxilibc6string5tests13strcspn_works0B7_
FN:1254,_RNCNvNtNtCslEoB1A2LKH6_7oxilibc6string5tests12memchr_works0B7_
FN:1575,_RNCNvNtNtCslEoB1A2LKH6_7oxilibc6string5tests12stpcpy_works0B7_
FN:1480,_RNvNtNtCslEoB1A2LKH6_7oxilibc6string5testss_12strcmp_works
FN:1283,_RNvNtNtCslEoB1A2LKH6_7oxilibc6string5testss_12memcmp_works
FN:1466,_RNCNvNtNtCslEoB1A2LKH6_7oxilibc6string5tests15strnlen_s_works0B7_
FN:1533,_RNvNtNtCslEoB1A2LKH6_7oxilibc6string5testss_13strcspn_works
FN:1541,_RNCNvNtNtCslEoB1A2LKH6_7oxilibc6string5tests13strpbrk_works0B7_
FN:1269,_RNCNvNtNtCslEoB1A2LKH6_7oxilibc6string5tests13memrchr_works0B7_
FN:1565,_RNCNvNtNtCslEoB1A2LKH6_7oxilibc6string5tests13strncpy_works0B7_
FN:1576,_RNvNtNtCslEoB1A2LKH6_7oxilibc6string5testss_12stpcpy_works
FN:1255,_RNvNtNtCslEoB1A2LKH6_7oxilibc6string5testss_12memchr_works
FN:1282,_RNCNvNtNtCslEoB1A2LKH6_7oxilibc6string5tests12memcmp_works0B7_
FN:1303,_RNCNvNtNtCslEoB1A2LKH6_7oxilibc6string5tests12memset_works0B7_
FN:1542,_RNvNtNtCslEoB1A2LKH6_7oxilibc6string5testss_13strpbrk_works
FN:1566,_RNvNtNtCslEoB1A2LKH6_7oxilibc6string5testss_13strncpy_works
FN:1424,_RNvNtNtCslEoB1A2LKH6_7oxilibc6string5testss_12strchr_works
FN:1333,_RNvNtNtCslEoB1A2LKH6_7oxilibc6string5testss_13memmove_works
FN:1501,_RNCNvNtNtCslEoB1A2LKH6_7oxilibc6string5tests13strncmp_works0B7_
FN:1436,_RNCNvNtNtCslEoB1A2LKH6_7oxilibc6string5tests13strrchr_works0B7_
FN:1557,_RNvNtNtCslEoB1A2LKH6_7oxilibc6string5testss_12strcpy_works
FN:1322,_RNvNtNtCslEoB1A2LKH6_7oxilibc6string5testss_12memcpy_works
FN:1592,_RNvNtNtCslEoB1A2LKH6_7oxilibc6string5testss_12strstr_works
FN:1370,_RNvNtNtCslEoB1A2LKH6_7oxilibc6string5testss_12memmem_works
FN:1449,_RNCNvNtNtCslEoB1A2LKH6_7oxilibc6string5tests12strlen_works0B7_
FN:1332,_RNCNvNtNtCslEoB1A2LKH6_7oxilibc6string5tests13memmove_works0B7_
FN:1437,_RNvNtNtCslEoB1A2LKH6_7oxilibc6string5testss_13strrchr_works
FN:1304,_RNvNtNtCslEoB1A2LKH6_7oxilibc6string5testss_12memset_works
FN:1479,_RNCNvNtNtCslEoB1A2LKH6_7oxilibc6string5tests12strcmp_works0B7_
FN:1502,_RNvNtNtCslEoB1A2LKH6_7oxilibc6string5testss_13strncmp_works
FN:1397,_RNvNtNtCslEoB1A2LKH6_7oxilibc6string5testss_13memrmem_works
FN:1523,_RNCNvNtNtCslEoB1A2LKH6_7oxilibc6string5tests12strspn_works0B7_
FN:1369,_RNCNvNtNtCslEoB1A2LKH6_7oxilibc6string5tests12memmem_works0B7_
FN:1456,_RNCNvNtNtCslEoB1A2LKH6_7oxilibc6string5tests13strnlen_works0B7_
FN:1524,_RNvNtNtCslEoB1A2LKH6_7oxilibc6string5testss_12strspn_works
FN:1450,_RNvNtNtCslEoB1A2LKH6_7oxilibc6string5testss_12strlen_works
FN:1556,_RNCNvNtNtCslEoB1A2LKH6_7oxilibc6string5tests12strcpy_works0B7_
FN:1321,_RNCNvNtNtCslEoB1A2LKH6_7oxilibc6string5tests12memcpy_works0B7_
FN:154,memrchr
FN:603,strlen
FN:502,strchr
FN:1111,strncpy
FN:998,strpbrk
FN:934,strcspn
FN:815,strncmp
FN:462,_RNCNvNtCslEoB1A2LKH6_7oxilibc6string7memrmem0B5_
FN:335,memmove
FN:157,_RNCNvNtCslEoB1A2LKH6_7oxilibc6string7memrchr0B5_
FN:245,memset
FN:555,strrchr
FN:1247,_RNCNvNtCslEoB1A2LKH6_7oxilibc6string6strstr0B5_
FN:1235,strstr
FN:112,memchr
FN:760,strcmp
FN:115,_RNCNvNtCslEoB1A2LKH6_7oxilibc6string6memchr0B5_
FN:652,strnlen
FN:869,strspn
FN:290,memcpy
FN:405,_RNCNvNtCslEoB1A2LKH6_7oxilibc6string6memmem0B5_
FN:455,memrmem
FN:1050,strcpy
FN:202,memcmp
FN:1178,stpcpy
FN:706,strnlen_s
FN:398,memmem
FNDA:1,_RNCNvNtNtCslEoB1A2LKH6_7oxilibc6string5tests12strstr_works0B7_
FNDA:1,_RNCNvNtNtCslEoB1A2LKH6_7oxilibc6string5tests13memrmem_works0B7_
FNDA:1,_RNCNvNtNtCslEoB1A2LKH6_7oxilibc6string5tests12strchr_works0B7_
FNDA:1,_RNvNtNtCslEoB1A2LKH6_7oxilibc6string5testss_13strnlen_works
FNDA:1,_RNvNtNtCslEoB1A2LKH6_7oxilibc6string5testss_15strnlen_s_works
FNDA:1,_RNvNtNtCslEoB1A2LKH6_7oxilibc6string5testss_13memrchr_works
FNDA:1,_RNCNvNtNtCslEoB1A2LKH6_7oxilibc6string5tests13strcspn_works0B7_
FNDA:1,_RNCNvNtNtCslEoB1A2LKH6_7oxilibc6string5tests12memchr_works0B7_
FNDA:1,_RNCNvNtNtCslEoB1A2LKH6_7oxilibc6string5tests12stpcpy_works0B7_
FNDA:1,_RNvNtNtCslEoB1A2LKH6_7oxilibc6string5testss_12strcmp_works
FNDA:1,_RNvNtNtCslEoB1A2LKH6_7oxilibc6string5testss_12memcmp_works
FNDA:1,_RNCNvNtNtCslEoB1A2LKH6_7oxilibc6string5tests15strnlen_s_works0B7_
FNDA:1,_RNvNtNtCslEoB1A2LKH6_7oxilibc6string5testss_13strcspn_works
FNDA:1,_RNCNvNtNtCslEoB1A2LKH6_7oxilibc6string5tests13strpbrk_works0B7_
FNDA:1,_RNCNvNtNtCslEoB1A2LKH6_7oxilibc6string5tests13memrchr_works0B7_
FNDA:1,_RNCNvNtNtCslEoB1A2LKH6_7oxilibc6string5tests13strncpy_works0B7_
FNDA:1,_RNvNtNtCslEoB1A2LKH6_7oxilibc6string5testss_12stpcpy_works
FNDA:1,_RNvNtNtCslEoB1A2LKH6_7oxilibc6string5testss_12memchr_works
FNDA:1,_RNCNvNtNtCslEoB1A2LKH6_7oxilibc6string5tests12memcmp_works0B7_
FNDA:1,_RNCNvNtNtCslEoB1A2LKH6_7oxilibc6string5tests12memset_works0B7_
FNDA:1,_RNvNtNtCslEoB1A2LKH6_7oxilibc6string5testss_13strpbrk_works
FNDA:1,_RNvNtNtCslEoB1A2LKH6_7oxilibc6string5testss_13strncpy_works
FNDA:1,_RNvNtNtCslEoB1A2LKH6_7oxilibc6string5testss_12strchr_works
FNDA:1,_RNvNtNtCslEoB1A2LKH6_7oxilibc6string5testss_13memmove_works
FNDA:1,_RNCNvNtNtCslEoB1A2LKH6_7oxilibc6string5tests13strncmp_works0B7_
FNDA:1,_RNCNvNtNtCslEoB1A2LKH6_7oxilibc6string5tests13strrchr_works0B7_
FNDA:1,_RNvNtNtCslEoB1A2LKH6_7oxilibc6string5testss_12strcpy_works
FNDA:1,_RNvNtNtCslEoB1A2LKH6_7oxilibc6string5testss_12memcpy_works
FNDA:1,_RNvNtNtCslEoB1A2LKH6_7oxilibc6string5testss_12strstr_works
FNDA:1,_RNvNtNtCslEoB1A2LKH6_7oxilibc6string5testss_12memmem_works
FNDA:1,_RNCNvNtNtCslEoB1A2LKH6_7oxilibc6string5tests12strlen_works0B7_
FNDA:1,_RNCNvNtNtCslEoB1A2LKH6_7oxilibc6string5tests13memmove_works0B7_
FNDA:1,_RNvNtNtCslEoB1A2LKH6_7oxilibc6string5testss_13strrchr_works
FNDA:1,_RNvNtNtCslEoB1A2LKH6_7oxilibc6string5testss_12memset_works
FNDA:1,_RNCNvNtNtCslEoB1A2LKH6_7oxilibc6string5tests12strcmp_works0B7_
FNDA:1,_RNvNtNtCslEoB1A2LKH6_7oxilibc6string5testss_13strncmp_works
FNDA:1,_RNvNtNtCslEoB1A2LKH6_7oxilibc6string5testss_13memrmem_works
FNDA:1,_RNCNvNtNtCslEoB1A2LKH6_7oxilibc6string5tests12strspn_works0B7_
FNDA:1,_RNCNvNtNtCslEoB1A2LKH6_7oxilibc6string5tests12memmem_works0B7_
FNDA:1,_RNCNvNtNtCslEoB1A2LKH6_7oxilibc6string5tests13strnlen_works0B7_
FNDA:1,_RNvNtNtCslEoB1A2LKH6_7oxilibc6string5testss_12strspn_works
FNDA:1,_RNvNtNtCslEoB1A2LKH6_7oxilibc6string5testss_12strlen_works
FNDA:1,_RNCNvNtNtCslEoB1A2LKH6_7oxilibc6string5tests12strcpy_works0B7_
FNDA:1,_RNCNvNtNtCslEoB1A2LKH6_7oxilibc6string5tests12memcpy_works0B7_
FNDA:1,memrchr
FNDA:52,strlen
FNDA:6,strchr
FNDA:1,strncpy
FNDA:2,strpbrk
FNDA:3,strcspn
FNDA:5,strncmp
FNDA:1,_RNCNvNtCslEoB1A2LKH6_7oxilibc6string7memrmem0B5_
FNDA:10,memmove
FNDA:1,_RNCNvNtCslEoB1A2LKH6_7oxilibc6string7memrchr0B5_
FNDA:17,memset
FNDA:4,strrchr
FNDA:2,_RNCNvNtCslEoB1A2LKH6_7oxilibc6string6strstr0B5_
FNDA:4,strstr
FNDA:7,memchr
FNDA:5,strcmp
FNDA:5,_RNCNvNtCslEoB1A2LKH6_7oxilibc6string6memchr0B5_
FNDA:2,strnlen
FNDA:1,strspn
FNDA:1788,memcpy
FNDA:1,_RNCNvNtCslEoB1A2LKH6_7oxilibc6string6memmem0B5_
FNDA:2,memrmem
FNDA:1,strcpy
FNDA:151,memcmp
FNDA:1,stpcpy
FNDA:3,strnlen_s
FNDA:2,memmem
FNF:71
FNH:71
DA:112,7
DA:113,7
DA:114,7
DA:115,7
DA:116,7
DA:154,1
DA:155,1
DA:156,1
DA:157,1
DA:158,1
DA:202,151
DA:203,151
DA:204,151
DA:205,151
DA:206,151
DA:245,17
DA:246,17
DA:247,17
DA:248,17
DA:290,1788
DA:291,1788
DA:292,1788
DA:293,1788
DA:335,10
DA:336,10
DA:337,10
DA:338,10
DA:339,10
DA:340,10
DA:341,10
DA:342,10
DA:343,2
DA:345,8
DA:348,10
DA:349,10
DA:398,2
DA:399,2
DA:400,2
DA:401,2
DA:402,2
DA:403,2
DA:404,2
DA:405,2
DA:406,2
DA:455,2
DA:456,2
DA:457,2
DA:458,2
DA:459,2
DA:460,2
DA:461,2
DA:462,2
DA:463,2
DA:502,6
DA:503,6
DA:506,36
DA:507,2
DA:508,34
DA:509,34
DA:510,34
DA:511,4
DA:512,30
DA:513,30
DA:514,30
DA:516,6
DA:555,4
DA:556,4
DA:557,4
DA:559,56
DA:560,52
DA:561,6
DA:562,46
DA:564,52
DA:567,4
DA:568,4
DA:603,52
DA:604,52
DA:605,1312
DA:606,1260
DA:607,1260
DA:609,52
DA:610,52
DA:652,2
DA:653,2
DA:655,22
DA:656,20
DA:657,20
DA:658,2
DA:659,2
DA:706,3
DA:707,3
DA:708,1
DA:710,2
DA:712,22
DA:713,20
DA:714,20
DA:715,2
DA:717,3
DA:760,5
DA:761,18
DA:762,17
DA:763,17
DA:764,17
DA:765,17
DA:766,17
DA:767,4
DA:768,13
DA:769,13
DA:770,13
DA:771,13
DA:773,1
DA:774,5
DA:815,5
DA:816,5
DA:817,5
DA:818,9
DA:819,9
DA:820,9
DA:821,9
DA:822,9
DA:823,9
DA:824,4
DA:825,5
DA:827,1
DA:828,5
DA:869,1
DA:870,1
DA:871,1
DA:872,1
DA:873,1
DA:874,1
DA:875,1
DA:876,1
DA:877,1
DA:878,1
DA:879,27
DA:880,26
DA:881,26
DA:882,26
DA:883,26
DA:885,6
DA:886,6
DA:887,1
DA:888,5
DA:889,5
DA:892,1
DA:893,1
DA:934,3
DA:935,3
DA:936,3
DA:937,3
DA:938,3
DA:939,3
DA:940,3
DA:941,3
DA:942,3
DA:943,3
DA:944,8
DA:945,5
DA:946,5
DA:947,5
DA:948,5
DA:950,27
DA:951,26
DA:952,2
DA:953,24
DA:954,24
DA:957,3
DA:958,3
DA:998,2
DA:999,2
DA:1000,2
DA:1001,2
DA:1002,2
DA:1003,2
DA:1004,1
DA:1005,1
DA:1007,2
DA:1050,1
DA:1051,1
DA:1054,13
DA:1055,13
DA:1056,13
DA:1057,13
DA:1058,13
DA:1059,1
DA:1060,12
DA:1061,12
DA:1062,12
DA:1064,1
DA:1111,1
DA:1112,1
DA:1113,1
DA:1114,1
DA:1116,13
DA:1117,12
DA:1118,12
DA:1119,12
DA:1120,12
DA:1125,1
DA:1126,1
DA:1127,1
DA:1128,1
DA:1178,1
DA:1179,1
DA:1182,13
DA:1183,13
DA:1184,13
DA:1185,13
DA:1186,13
DA:1187,1
DA:1188,12
DA:1189,12
DA:1190,12
DA:1192,1
DA:1235,4
DA:1236,4
DA:1237,4
DA:1238,1
DA:1239,3
DA:1240,3
DA:1241,3
DA:1242,3
DA:1243,3
DA:1244,3
DA:1245,3
DA:1246,3
DA:1247,3
DA:1248,4
DA:1254,1
DA:1255,1
DA:1256,1
DA:1258,5
DA:1259,5
DA:1260,5
DA:1261,5
DA:1265,1
DA:1266,1
DA:1267,1
DA:1269,1
DA:1270,1
DA:1271,1
DA:1272,1
DA:1273,1
DA:1274,1
DA:1275,1
DA:1278,1
DA:1279,1
DA:1280,1
DA:1282,1
DA:1283,1
DA:1284,1
DA:1285,1
DA:1286,1
DA:1287,1
DA:1288,1
DA:1289,1
DA:1290,1
DA:1291,1
DA:1294,1
DA:1295,1
DA:1298,1
DA:1299,1
DA:1301,1
DA:1303,1
DA:1304,1
DA:1305,1
DA:1306,1
DA:1307,1
DA:1308,1
DA:1309,1
DA:1310,1
DA:1312,1
DA:1313,1
DA:1314,1
DA:1315,1
DA:1316,1
DA:1317,1
DA:1318,1
DA:1319,1
DA:1321,1
DA:1322,1
DA:1323,1
DA:1324,1
DA:1325,1
DA:1326,1
DA:1327,1
DA:1328,1
DA:1329,1
DA:1330,1
DA:1332,1
DA:1333,1
DA:1334,1
DA:1335,1
DA:1336,1
DA:1337,1
DA:1338,1
DA:1339,1
DA:1340,1
DA:1341,1
DA:1345,1
DA:1346,1
DA:1347,1
DA:1348,1
DA:1349,1
DA:1350,1
DA:1355,1
DA:1356,1
DA:1357,1
DA:1358,1
DA:1359,1
DA:1362,1
DA:1363,1
DA:1364,1
DA:1365,1
DA:1366,1
DA:1367,1
DA:1369,1
DA:1370,1
DA:1371,1
DA:1372,1
DA:1373,1
DA:1374,1
DA:1375,1
DA:1376,1
DA:1377,1
DA:1378,1
DA:1379,1
DA:1380,1
DA:1381,1
DA:1382,1
DA:1385,1
DA:1386,1
DA:1387,1
DA:1388,1
DA:1389,1
DA:1390,1
DA:1391,1
DA:1392,1
DA:1393,1
DA:1394,1
DA:1396,1
DA:1397,1
DA:1398,1
DA:1399,1
DA:1400,1
DA:1401,1
DA:1402,1
DA:1403,1
DA:1404,1
DA:1405,1
DA:1406,1
DA:1407,1
DA:1408,1
DA:1409,1
DA:1412,1
DA:1413,1
DA:1414,1
DA:1415,1
DA:1416,1
DA:1417,1
DA:1418,1
DA:1419,1
DA:1420,1
DA:1421,1
DA:1423,1
DA:1424,1
DA:1425,1
DA:1426,1
DA:1427,1
DA:1428,1
DA:1429,1
DA:1432,1
DA:1433,1
DA:1434,1
DA:1436,1
DA:1437,1
DA:1438,1
DA:1439,1
DA:1440,1
DA:1441,1
DA:1442,1
DA:1445,1
DA:1446,1
DA:1447,1
DA:1449,1
DA:1450,1
DA:1451,1
DA:1452,1
DA:1453,1
DA:1454,1
DA:1456,1
DA:1457,1
DA:1458,1
DA:1459,1
DA:1460,1
DA:1462,1
DA:1463,1
DA:1464,1
DA:1466,1
DA:1467,1
DA:1468,1
DA:1469,1
DA:1470,1
DA:1472,1
DA:1473,1
DA:1475,1
DA:1476,1
DA:1477,1
DA:1479,1
DA:1480,1
DA:1481,1
DA:1482,1
DA:1483,1
DA:1484,1
DA:1485,1
DA:1486,1
DA:1488,1
DA:1489,1
DA:1491,1
DA:1492,1
DA:1494,1
DA:1495,1
DA:1497,1
DA:1498,1
DA:1499,1
DA:1501,1
DA:1502,1
DA:1503,1
DA:1504,1
DA:1505,1
DA:1506,1
DA:1507,1
DA:1508,1
DA:1510,1
DA:1511,1
DA:1513,1
DA:1514,1
DA:1516,1
DA:1517,1
DA:1519,1
DA:1520,1
DA:1521,1
DA:1523,1
DA:1524,1
DA:1525,1
DA:1526,1
DA:1527,1
DA:1528,1
DA:1529,1
DA:1530,1
DA:1532,1
DA:1533,1
DA:1534,1
DA:1535,1
DA:1536,1
DA:1537,1
DA:1538,1
DA:1539,1
DA:1541,1
DA:1542,1
DA:1543,1
DA:1544,1
DA:1545,1
DA:1546,1
DA:1547,1
DA:1548,1
DA:1551,1
DA:1552,1
DA:1553,1
DA:1554,1
DA:1556,1
DA:1557,1
DA:1558,1
DA:1559,1
DA:1560,1
DA:1561,1
DA:1562,1
DA:1563,1
DA:1565,1
DA:1566,1
DA:1567,1
DA:1568,1
DA:1569,1
DA:1570,1
DA:1571,1
DA:1572,1
DA:1573,1
DA:1575,1
DA:1576,1
DA:1577,1
DA:1578,1
DA:1579,1
DA:1580,1
DA:1581,1
DA:1583,1
DA:1584,1
DA:1587,1
DA:1589,1
DA:1591,1
DA:1592,1
DA:1593,1
DA:1594,1
DA:1595,1
DA:1596,1
DA:1597,1
DA:1598,1
DA:1599,1
DA:1600,1
DA:1601,1
DA:1604,1
DA:1605,1
DA:1608,1
DA:1609,1
DA:1612,1
DA:1613,1
DA:1614,1
BRF:0
BRH:0
LF:522
LH:522
end_of_record
SF:/Users/grayjack/Documents/Sources/RustProjects/oxilibc/src/string/impls.rs
FN:72,_RNvNtNtCslEoB1A2LKH6_7oxilibc6string5impls12copy_forward
FN:280,_RNvNvNtNtCslEoB1A2LKH6_7oxilibc6string5impls9set_bytes15set_bytes_bytes
FN:285,_RNvNvNtNtCslEoB1A2LKH6_7oxilibc6string5impls9set_bytes15set_bytes_words
FN:81,_RNvNvNtNtCslEoB1A2LKH6_7oxilibc6string5impls12copy_forward26copy_forward_aligned_words
FN:176,_RNvNtNtCslEoB1A2LKH6_7oxilibc6string5impls13copy_backward
FN:188,_RNvNvNtNtCslEoB1A2LKH6_7oxilibc6string5impls13copy_backward27copy_backward_aligned_words
FN:278,_RNvNtNtCslEoB1A2LKH6_7oxilibc6string5impls9set_bytes
FN:38,_RNvNtNtCslEoB1A2LKH6_7oxilibc6string5impls13compare_bytes
FN:74,_RNvNvNtNtCslEoB1A2LKH6_7oxilibc6string5impls12copy_forward18copy_forward_bytes
FN:94,_RNvNvNtNtCslEoB1A2LKH6_7oxilibc6string5impls12copy_forward29copy_forward_misaligned_words
FN:178,_RNvNvNtNtCslEoB1A2LKH6_7oxilibc6string5impls13copy_backward19copy_backward_bytes
FN:201,_RNvNvNtNtCslEoB1A2LKH6_7oxilibc6string5impls13copy_backward30copy_backward_misaligned_words
FNDA:1796,_RNvNtNtCslEoB1A2LKH6_7oxilibc6string5impls12copy_forward
FNDA:27,_RNvNvNtNtCslEoB1A2LKH6_7oxilibc6string5impls9set_bytes15set_bytes_bytes
FNDA:10,_RNvNvNtNtCslEoB1A2LKH6_7oxilibc6string5impls9set_bytes15set_bytes_words
FNDA:404,_RNvNvNtNtCslEoB1A2LKH6_7oxilibc6string5impls12copy_forward26copy_forward_aligned_words
FNDA:2,_RNvNtNtCslEoB1A2LKH6_7oxilibc6string5impls13copy_backward
FNDA:0,_RNvNvNtNtCslEoB1A2LKH6_7oxilibc6string5impls13copy_backward27copy_backward_aligned_words
FNDA:17,_RNvNtNtCslEoB1A2LKH6_7oxilibc6string5impls9set_bytes
FNDA:151,_RNvNtNtCslEoB1A2LKH6_7oxilibc6string5impls13compare_bytes
FNDA:2298,_RNvNvNtNtCslEoB1A2LKH6_7oxilibc6string5impls12copy_forward18copy_forward_bytes
FNDA:98,_RNvNvNtNtCslEoB1A2LKH6_7oxilibc6string5impls12copy_forward29copy_forward_misaligned_words
FNDA:2,_RNvNvNtNtCslEoB1A2LKH6_7oxilibc6string5impls13copy_backward19copy_backward_bytes
FNDA:0,_RNvNvNtNtCslEoB1A2LKH6_7oxilibc6string5impls13copy_backward30copy_backward_misaligned_words
FNF:12
FNH:10
DA:38,151
DA:39,151
DA:40,151
DA:41,151
DA:42,99
DA:43,99
DA:45,265
DA:46,265
DA:47,99
DA:48,166
DA:49,166
DA:50,166
DA:51,166
DA:54,99
DA:55,99
DA:56,52
DA:58,863
DA:59,839
DA:60,127
DA:61,712
DA:62,712
DA:63,712
DA:64,712
DA:67,24
DA:68,151
DA:72,1796
DA:73,1796
DA:74,2298
DA:75,5057
DA:76,5057
DA:77,5057
DA:78,2298
DA:79,1796
DA:80,1796
DA:81,1796
DA:82,404
DA:83,404
DA:84,404
DA:85,1796
DA:86,11790
DA:87,11386
DA:88,11386
DA:89,11386
DA:90,11386
DA:91,1796
DA:92,1796
DA:93,1796
DA:94,1796
DA:95,98
DA:96,98
DA:97,98
DA:98,98
DA:99,98
DA:100,98
DA:101,98
DA:102,98
DA:103,98
DA:104,98
DA:105,1796
DA:106,1796
DA:107,485
DA:108,485
DA:109,485
DA:110,485
DA:111,485
DA:112,485
DA:113,485
DA:114,485
DA:115,485
DA:116,485
DA:117,485
DA:118,1796
DA:119,1796
DA:120,1796
DA:123,502
DA:124,502
DA:125,502
DA:126,502
DA:127,502
DA:128,502
DA:129,502
DA:130,502
DA:131,502
DA:132,404
DA:133,404
DA:134,98
DA:135,98
DA:136,502
DA:137,502
DA:138,502
DA:139,1294
DA:141,1796
DA:142,1796
DA:176,2
DA:177,2
DA:178,2
DA:179,2
DA:180,8
DA:181,6
DA:182,6
DA:183,6
DA:184,6
DA:185,2
DA:186,2
DA:187,2
DA:188,2
DA:189,0
DA:190,0
DA:191,0
DA:192,2
DA:193,2
DA:194,0
DA:195,0
DA:196,0
DA:197,0
DA:198,2
DA:199,2
DA:200,2
DA:201,2
DA:202,0
DA:203,0
DA:204,0
DA:205,0
DA:206,0
DA:207,0
DA:208,0
DA:209,0
DA:210,0
DA:211,0
DA:212,2
DA:213,2
DA:214,0
DA:215,0
DA:216,0
DA:217,0
DA:218,0
DA:219,0
DA:220,0
DA:221,0
DA:222,0
DA:223,0
DA:224,0
DA:225,2
DA:226,2
DA:227,2
DA:228,2
DA:229,2
DA:230,2
DA:233,0
DA:234,0
DA:235,0
DA:236,0
DA:237,0
DA:238,0
DA:239,0
DA:240,0
DA:241,0
DA:242,0
DA:243,0
DA:244,0
DA:245,0
DA:246,0
DA:247,0
DA:248,0
DA:249,2
DA:251,2
DA:252,2
DA:278,17
DA:279,17
DA:280,27
DA:281,27
DA:282,27
DA:283,17
DA:284,17
DA:285,17
DA:286,10
DA:287,10
DA:288,40
DA:289,30
DA:290,30
DA:291,30
DA:292,17
DA:293,17
DA:294,10
DA:295,17
DA:296,158
DA:297,148
DA:298,148
DA:299,148
DA:300,17
DA:301,17
DA:302,17
DA:303,10
DA:304,10
DA:305,10
DA:306,10
DA:307,10
DA:308,10
DA:309,10
DA:310,10
DA:311,10
DA:312,10
DA:313,10
DA:314,10
DA:316,17
DA:317,17
BRF:0
BRH:0
LF:304
LH:254
end_of_record
SF:/Users/grayjack/Documents/Sources/RustProjects/oxilibc/src/strings.rs
FN:394,_RNvNtNtCslEoB1A2LKH6_7oxilibc7strings5testss_9ffs_works
FN:543,_RNCNvNtNtCslEoB1A2LKH6_7oxilibc7strings5tests17strncasecmp_works0B7_
FN:457,_RNCNvNtNtCslEoB1A2LKH6_7oxilibc7strings5tests11bcopy_works0B7_
FN:528,_RNvNtNtCslEoB1A2LKH6_7oxilibc7strings5testss_16strcasecmp_works
FN:421,_RNCNvNtNtCslEoB1A2LKH6_7oxilibc7strings5tests11ffsll_works0B7_
FN:408,_RNvNtNtCslEoB1A2LKH6_7oxilibc7strings5testss_10ffsl_works
FN:501,_RNvNtNtCslEoB1A2LKH6_7oxilibc7strings5testss_11index_works
FN:435,_RNCNvNtNtCslEoB1A2LKH6_7oxilibc7strings5tests10bcmp_works0B7_
FN:422,_RNvNtNtCslEoB1A2LKH6_7oxilibc7strings5testss_11ffsll_works
FN:515,_RNvNtNtCslEoB1A2LKH6_7oxilibc7strings5testss_12rindex_works
FN:513,_RNCNvNtNtCslEoB1A2LKH6_7oxilibc7strings5tests12rindex_works0B7_
FN:488,_RNCNvNtNtCslEoB1A2LKH6_7oxilibc7strings5tests11bzero_works0B7_
FN:544,_RNvNtNtCslEoB1A2LKH6_7oxilibc7strings5testss_17strncasecmp_works
FN:393,_RNCNvNtNtCslEoB1A2LKH6_7oxilibc7strings5tests9ffs_works0B7_
FN:437,_RNvNtNtCslEoB1A2LKH6_7oxilibc7strings5testss_10bcmp_works
FN:459,_RNvNtNtCslEoB1A2LKH6_7oxilibc7strings5testss_11bcopy_works
FN:527,_RNCNvNtNtCslEoB1A2LKH6_7oxilibc7strings5tests16strcasecmp_works0B7_
FN:499,_RNCNvNtNtCslEoB1A2LKH6_7oxilibc7strings5tests11index_works0B7_
FN:407,_RNCNvNtNtCslEoB1A2LKH6_7oxilibc7strings5tests10ffsl_works0B7_
FN:490,_RNvNtNtCslEoB1A2LKH6_7oxilibc7strings5testss_11bzero_works
FN:92,index
FN:248,ffsll
FN:107,rindex
FN:77,bzero
FN:371,strncasecmp
FN:62,bcopy
FN:305,strcasecmp
FN:200,ffsl
FN:47,bcmp
FN:152,ffs
FNDA:1,_RNvNtNtCslEoB1A2LKH6_7oxilibc7strings5testss_9ffs_works
FNDA:1,_RNCNvNtNtCslEoB1A2LKH6_7oxilibc7strings5tests17strncasecmp_works0B7_
FNDA:1,_RNCNvNtNtCslEoB1A2LKH6_7oxilibc7strings5tests11bcopy_works0B7_
FNDA:1,_RNvNtNtCslEoB1A2LKH6_7oxilibc7strings5testss_16strcasecmp_works
FNDA:1,_RNCNvNtNtCslEoB1A2LKH6_7oxilibc7strings5tests11ffsll_works0B7_
FNDA:1,_RNvNtNtCslEoB1A2LKH6_7oxilibc7strings5testss_10ffsl_works
FNDA:1,_RNvNtNtCslEoB1A2LKH6_7oxilibc7strings5testss_11index_works
FNDA:1,_RNCNvNtNtCslEoB1A2LKH6_7oxilibc7strings5tests10bcmp_works0B7_
FNDA:1,_RNvNtNtCslEoB1A2LKH6_7oxilibc7strings5testss_11ffsll_works
FNDA:1,_RNvNtNtCslEoB1A2LKH6_7oxilibc7strings5testss_12rindex_works
FNDA:1,_RNCNvNtNtCslEoB1A2LKH6_7oxilibc7strings5tests12rindex_works0B7_
FNDA:1,_RNCNvNtNtCslEoB1A2LKH6_7oxilibc7strings5tests11bzero_works0B7_
FNDA:1,_RNvNtNtCslEoB1A2LKH6_7oxilibc7strings5testss_17strncasecmp_works
FNDA:1,_RNCNvNtNtCslEoB1A2LKH6_7oxilibc7strings5tests9ffs_works0B7_
FNDA:1,_RNvNtNtCslEoB1A2LKH6_7oxilibc7strings5testss_10bcmp_works
FNDA:1,_RNvNtNtCslEoB1A2LKH6_7oxilibc7strings5testss_11bcopy_works
FNDA:1,_RNCNvNtNtCslEoB1A2LKH6_7oxilibc7strings5tests16strcasecmp_works0B7_
FNDA:1,_RNCNvNtNtCslEoB1A2LKH6_7oxilibc7strings5tests11index_works0B7_
FNDA:1,_RNCNvNtNtCslEoB1A2LKH6_7oxilibc7strings5tests10ffsl_works0B7_
FNDA:1,_RNvNtNtCslEoB1A2LKH6_7oxilibc7strings5testss_11bzero_works
FNDA:2,index
FNDA:12,ffsll
FNDA:2,rindex
FNDA:2,bzero
FNDA:7,strncasecmp
FNDA:3,bcopy
FNDA:4,strcasecmp
FNDA:12,ffsl
FNDA:3,bcmp
FNDA:12,ffs
FNF:30
FNH:30
DA:47,3
DA:48,3
DA:49,3
DA:62,3
DA:63,3
DA:64,3
DA:77,2
DA:78,2
DA:79,2
DA:92,2
DA:93,2
DA:94,2
DA:107,2
DA:108,2
DA:109,2
DA:152,12
DA:153,12
DA:154,1
DA:155,11
DA:157,12
DA:200,12
DA:201,12
DA:202,1
DA:203,11
DA:205,12
DA:248,12
DA:249,12
DA:250,1
DA:251,11
DA:253,12
DA:305,4
DA:306,13
DA:307,13
DA:308,13
DA:309,13
DA:310,13
DA:311,13
DA:312,4
DA:313,9
DA:314,9
DA:315,9
DA:316,9
DA:318,4
DA:371,7
DA:372,7
DA:373,7
DA:374,7
DA:375,19
DA:376,19
DA:377,19
DA:378,19
DA:379,19
DA:380,4
DA:381,15
DA:382,15
DA:383,15
DA:384,15
DA:386,3
DA:387,7
DA:393,1
DA:394,1
DA:395,1
DA:396,1
DA:397,1
DA:398,1
DA:400,1
DA:401,9
DA:402,8
DA:403,8
DA:405,1
DA:407,1
DA:408,1
DA:409,1
DA:410,1
DA:411,1
DA:412,1
DA:414,1
DA:415,9
DA:416,8
DA:417,8
DA:419,1
DA:421,1
DA:422,1
DA:423,1
DA:424,1
DA:425,1
DA:426,1
DA:428,1
DA:429,9
DA:430,8
DA:431,8
DA:433,1
DA:435,1
DA:437,1
DA:438,1
DA:439,1
DA:440,1
DA:441,1
DA:442,1
DA:443,1
DA:444,1
DA:445,1
DA:448,1
DA:449,1
DA:452,1
DA:453,1
DA:455,1
DA:457,1
DA:459,1
DA:460,1
DA:461,1
DA:462,1
DA:463,1
DA:464,1
DA:465,1
DA:466,1
DA:467,1
DA:471,1
DA:472,1
DA:473,1
DA:474,1
DA:475,1
DA:476,1
DA:481,1
DA:482,1
DA:483,1
DA:484,1
DA:485,1
DA:486,1
DA:488,1
DA:490,1
DA:491,1
DA:492,1
DA:493,1
DA:494,1
DA:495,1
DA:496,1
DA:497,1
DA:499,1
DA:501,1
DA:502,1
DA:503,1
DA:504,1
DA:505,1
DA:506,1
DA:509,1
DA:510,1
DA:511,1
DA:513,1
DA:515,1
DA:516,1
DA:517,1
DA:518,1
DA:519,1
DA:520,1
DA:523,1
DA:524,1
DA:525,1
DA:527,1
DA:528,1
DA:529,1
DA:530,1
DA:531,1
DA:532,1
DA:533,1
DA:535,1
DA:537,1
DA:539,1
DA:541,1
DA:543,1
DA:544,1
DA:545,1
DA:546,1
DA:547,1
DA:548,1
DA:549,1
DA:550,1
DA:551,1
DA:553,1
DA:555,1
DA:557,1
DA:559,1
DA:560,1
DA:561,1
DA:562,1
DA:563,1
DA:564,1
DA:565,1
DA:566,1
DA:568,1
DA:569,1
DA:570,1
DA:571,1
DA:572,1
DA:573,1
DA:574,1
DA:576,1
BRF:0
BRH:0
LF:197
LH:197
end_of_record